Archive member included to satisfy reference by file (symbol)

..\src\config\default\X2CCode\X2CModel\Library\Control\Controller\lib\libCortexM4-ATSAM_Control.a(PILimit_FiP16.o)
                              build/default/debug/_ext/546984198/X2C.o (PILimit_FiP16_Update)
..\src\config\default\X2CCode\X2CModel\Library\Control\Controller\lib\libCortexM4-ATSAM_Control.a(PI_FiP16.o)
                              build/default/debug/_ext/546984198/X2C.o (PI_FiP16_Update)
..\src\config\default\X2CCode\X2CModel\Library\General\Controller\lib\libCortexM4-ATSAM_General.a(AutoSwitch_FiP16.o)
                              build/default/debug/_ext/546984198/X2C.o (AutoSwitch_FiP16_Update)
..\src\config\default\X2CCode\X2CModel\Library\General\Controller\lib\libCortexM4-ATSAM_General.a(Constant_Bool.o)
                              build/default/debug/_ext/546984198/X2C.o (Constant_Bool_Init)
..\src\config\default\X2CCode\X2CModel\Library\General\Controller\lib\libCortexM4-ATSAM_General.a(Constant_FiP16.o)
                              build/default/debug/_ext/546984198/X2C.o (Constant_FiP16_Init)
..\src\config\default\X2CCode\X2CModel\Library\General\Controller\lib\libCortexM4-ATSAM_General.a(Constant_Float32.o)
                              build/default/debug/_ext/546984198/X2C.o (Constant_Float32_Init)
..\src\config\default\X2CCode\X2CModel\Library\General\Controller\lib\libCortexM4-ATSAM_General.a(Gain_FiP16.o)
                              build/default/debug/_ext/546984198/X2C.o (Gain_FiP16_Update)
..\src\config\default\X2CCode\X2CModel\Library\General\Controller\lib\libCortexM4-ATSAM_General.a(Gain_Float32.o)
                              build/default/debug/_ext/546984198/X2C.o (Gain_Float32_Update)
..\src\config\default\X2CCode\X2CModel\Library\General\Controller\lib\libCortexM4-ATSAM_General.a(Int2Real_FiP16_Float32.o)
                              build/default/debug/_ext/546984198/X2C.o (Int2Real_FiP16_Float32_Update)
..\src\config\default\X2CCode\X2CModel\Library\General\Controller\lib\libCortexM4-ATSAM_General.a(LookupTable_FiP16.o)
                              build/default/debug/_ext/546984198/X2C.o (LookupTable_FiP16_Update)
..\src\config\default\X2CCode\X2CModel\Library\General\Controller\lib\libCortexM4-ATSAM_General.a(ManualSwitch_Bool.o)
                              build/default/debug/_ext/546984198/X2C.o (ManualSwitch_Bool_Update)
..\src\config\default\X2CCode\X2CModel\Library\General\Controller\lib\libCortexM4-ATSAM_General.a(ManualSwitch_FiP16.o)
                              build/default/debug/_ext/546984198/X2C.o (ManualSwitch_FiP16_Update)
..\src\config\default\X2CCode\X2CModel\Library\General\Controller\lib\libCortexM4-ATSAM_General.a(Not_Bool.o)
                              build/default/debug/_ext/546984198/X2C.o (Not_Bool_Update)
..\src\config\default\X2CCode\X2CModel\Library\General\Controller\lib\libCortexM4-ATSAM_General.a(RateLimiter_FiP16.o)
                              build/default/debug/_ext/546984198/X2C.o (RateLimiter_FiP16_Update)
..\src\config\default\X2CCode\X2CModel\Library\General\Controller\lib\libCortexM4-ATSAM_General.a(Real2Int_Float32_FiP8.o)
                              build/default/debug/_ext/546984198/X2C.o (Real2Int_Float32_FiP8_Update)
..\src\config\default\X2CCode\X2CModel\Library\General\Controller\lib\libCortexM4-ATSAM_General.a(Saturation_FiP16.o)
                              build/default/debug/_ext/546984198/X2C.o (Saturation_FiP16_Update)
..\src\config\default\X2CCode\X2CModel\Library\General\Controller\lib\libCortexM4-ATSAM_General.a(SaveSignal_Float32.o)
                              build/default/debug/_ext/546984198/X2C.o (SaveSignal_Float32_Init)
..\src\config\default\X2CCode\X2CModel\Library\General\Controller\lib\libCortexM4-ATSAM_General.a(Selector_FiP16.o)
                              build/default/debug/_ext/546984198/X2C.o (Selector_FiP16_Update)
..\src\config\default\X2CCode\X2CModel\Library\General\Controller\lib\libCortexM4-ATSAM_General.a(Sequencer_FiP16.o)
                              build/default/debug/_ext/546984198/X2C.o (Sequencer_FiP16_Update)
..\src\config\default\X2CCode\X2CModel\Library\General\Controller\lib\libCortexM4-ATSAM_General.a(SinGen_FiP16.o)
                              build/default/debug/_ext/546984198/X2C.o (SinGen_FiP16_Update)
..\src\config\default\X2CCode\X2CModel\Library\General\Controller\lib\libCortexM4-ATSAM_General.a(TypeConv_Bool_FiP16.o)
                              build/default/debug/_ext/546984198/X2C.o (TypeConv_Bool_FiP16_Update)
..\src\config\default\X2CCode\X2CModel\Library\General\Controller\lib\libCortexM4-ATSAM_General.a(TypeConv_FiP16_Bool.o)
                              build/default/debug/_ext/546984198/X2C.o (TypeConv_FiP16_Bool_Update)
..\src\config\default\X2CCode\X2CModel\Library\Math\Controller\lib\libCortexM4-ATSAM_Math.a(Abs_FiP16.o)
                              build/default/debug/_ext/546984198/X2C.o (Abs_FiP16_Update)
..\src\config\default\X2CCode\X2CModel\Library\Math\Controller\lib\libCortexM4-ATSAM_Math.a(Add_FiP16.o)
                              build/default/debug/_ext/546984198/X2C.o (Add_FiP16_Update)
..\src\config\default\X2CCode\X2CModel\Library\Math\Controller\lib\libCortexM4-ATSAM_Math.a(Average_FiP16.o)
                              build/default/debug/_ext/546984198/X2C.o (Average_FiP16_Update)
..\src\config\default\X2CCode\X2CModel\Library\Math\Controller\lib\libCortexM4-ATSAM_Math.a(Mult_FiP16.o)
                              build/default/debug/_ext/546984198/X2C.o (Mult_FiP16_Update)
..\src\config\default\X2CCode\X2CModel\Library\Math\Controller\lib\libCortexM4-ATSAM_Math.a(Mult_Float32.o)
                              build/default/debug/_ext/546984198/X2C.o (Mult_Float32_Update)
..\src\config\default\X2CCode\X2CModel\Library\Math\Controller\lib\libCortexM4-ATSAM_Math.a(Negation_FiP16.o)
                              build/default/debug/_ext/546984198/X2C.o (Negation_FiP16_Update)
..\src\config\default\X2CCode\X2CModel\Library\Math\Controller\lib\libCortexM4-ATSAM_Math.a(Sign_FiP16.o)
                              build/default/debug/_ext/546984198/X2C.o (Sign_FiP16_Update)
..\src\config\default\X2CCode\X2CModel\Library\Math\Controller\lib\libCortexM4-ATSAM_Math.a(Sub_FiP16.o)
                              build/default/debug/_ext/546984198/X2C.o (Sub_FiP16_Update)
..\src\config\default\X2CCode\X2CModel\Library\Math\Controller\lib\libCortexM4-ATSAM_Math.a(Sum_Float32.o)
                              build/default/debug/_ext/546984198/X2C.o (Sum_Float32_Update)
..\src\config\default\X2CCode\X2CModel\Library\Math\Controller\lib\libCortexM4-ATSAM_Math.a(uAdd_FiP16.o)
                              build/default/debug/_ext/546984198/X2C.o (uAdd_FiP16_Update)
..\src\config\default\X2CCode\X2CModel\Library\MCHP\Controller\lib\libCortexM4-ATSAM_MCHP.a(Park_Clarke_inv_SVM_MCHP_FiP16.o)
                              build/default/debug/_ext/546984198/X2C.o (Park_Clarke_inv_SVM_MCHP_FiP16_Update)
..\src\config\default\X2CCode\X2CModel\Library\MCHP\Controller\lib\libCortexM4-ATSAM_MCHP.a(Clarke_Park_MCHP_FiP16.o)
                              build/default/debug/_ext/546984198/X2C.o (Clarke_Park_MCHP_FiP16_Update)
c:/program files/microchip/xc32/v4.35/bin/bin/../../lib/gcc/pic32c/8.3.1/../../../../pic32c/lib/thumb/v7e-m+fp/hard\libpic32c.a(data_init.o)
                              build/default/debug/_ext/1171490990/startup_xc32.o (__pic32c_data_initialization)
c:/program files/microchip/xc32/v4.35/bin/bin/../../lib/gcc/pic32c/8.3.1/../../../../pic32c/lib/thumb/v7e-m+fp/hard\libm-fast-emfloat.a(__aeabi_dmul.o)
                              build/default/debug/_ext/1455229975/CommonFcts.o (__aeabi_dmul)
c:/program files/microchip/xc32/v4.35/bin/bin/../../lib/gcc/pic32c/8.3.1/../../../../pic32c/lib/thumb/v7e-m+fp/hard\libm-fast-emfloat.a(__aeabi_dcmple.o)
                              build/default/debug/_ext/546984198/Scope_Main.o (__aeabi_dcmple)
c:/program files/microchip/xc32/v4.35/bin/bin/../../lib/gcc/pic32c/8.3.1/../../../../pic32c/lib/thumb/v7e-m+fp/hard\libm-fast-emfloat.a(__aeabi_dcmpge.o)
                              build/default/debug/_ext/546984198/Scope_Main.o (__aeabi_dcmpge)
c:/program files/microchip/xc32/v4.35/bin/bin/../../lib/gcc/pic32c/8.3.1/../../../../pic32c/lib/thumb/v7e-m+fp/hard\libm-fast-emfloat.a(__aeabi_dcmpgt.o)
                              build/default/debug/_ext/1455229975/CommonFcts.o (__aeabi_dcmpgt)
c:/program files/microchip/xc32/v4.35/bin/bin/../../lib/gcc/pic32c/8.3.1/../../../../pic32c/lib/thumb/v7e-m+fp/hard\libm-fast-emfloat.a(__aeabi_dcmplt.o)
                              build/default/debug/_ext/1455229975/CommonFcts.o (__aeabi_dcmplt)
c:/program files/microchip/xc32/v4.35/bin/bin/../../lib/gcc/pic32c/8.3.1/../../../../pic32c/lib/thumb/v7e-m+fp/hard\libm-fast-emfloat.a(__aeabi_f2lz.o)
                              build/default/debug/_ext/1455229975/CommonFcts.o (__aeabi_f2lz)
c:/program files/microchip/xc32/v4.35/bin/bin/../../lib/gcc/pic32c/8.3.1/../../../../pic32c/lib/thumb/v7e-m+fp/hard\libm-fast-emfloat.a(__aeabi_ui2d.o)
                              build/default/debug/_ext/1455229975/CommonFcts.o (__aeabi_ui2d)
c:/program files/microchip/xc32/v4.35/bin/bin/../../lib/gcc/pic32c/8.3.1/../../../../pic32c/lib/thumb/v7e-m+fp/hard\libm-fast-emfloat.a(__aeabi_f2d.o)
                              build/default/debug/_ext/1455229975/CommonFcts.o (__aeabi_f2d)
c:/program files/microchip/xc32/v4.35/bin/bin/../../lib/gcc/pic32c/8.3.1/../../../../pic32c/lib/thumb/v7e-m+fp/hard\libm-fast-emfloat.a(__aeabi_d2f.o)
                              build/default/debug/_ext/1455229975/CommonFcts.o (__aeabi_d2f)
c:/program files/microchip/xc32/v4.35/bin/bin/../../lib/gcc/pic32c/8.3.1/../../../../pic32c/lib/thumb/v7e-m+fp/hard\libg-musl.a(__libc_start_main.o)
                              build/default/debug/_ext/1171490990/startup_xc32.o (__libc_init_array)
c:/program files/microchip/xc32/v4.35/bin/bin/../../lib/gcc/pic32c/8.3.1/../../../../pic32c/lib/thumb/v7e-m+fp/hard\libg-musl.a(libc.o)
                              c:/program files/microchip/xc32/v4.35/bin/bin/../../lib/gcc/pic32c/8.3.1/../../../../pic32c/lib/thumb/v7e-m+fp/hard\libg-musl.a(__libc_start_main.o) (__progname_full)
c:/program files/microchip/xc32/v4.35/bin/bin/../../lib/gcc/pic32c/8.3.1/../../../../pic32c/lib/thumb/v7e-m+fp/hard\libg-musl.a(memcpy.o)
                              build/default/debug/_ext/1593096446/plib_nvmctrl.o (memcpy)
c:/program files/microchip/xc32/v4.35/bin/bin/../../lib/gcc/pic32c/8.3.1/../../../../pic32c/lib/thumb/v7e-m+fp/hard\libg-musl.a(__environ.o)
                              c:/program files/microchip/xc32/v4.35/bin/bin/../../lib/gcc/pic32c/8.3.1/../../../../pic32c/lib/thumb/v7e-m+fp/hard\libg-musl.a(__libc_start_main.o) (__environ)
c:/program files/microchip/xc32/v4.35/bin/bin/../../lib/gcc/pic32c/8.3.1/thumb/v7e-m+fp/hard\libgcc.a(_aeabi_ldivmod.o)
                              build/default/debug/_ext/504274921/plib_sercom2_usart.o (__aeabi_ldivmod)
c:/program files/microchip/xc32/v4.35/bin/bin/../../lib/gcc/pic32c/8.3.1/thumb/v7e-m+fp/hard\libgcc.a(_aeabi_uldivmod.o)
                              build/default/debug/_ext/504274921/plib_sercom2_usart.o (__aeabi_uldivmod)
c:/program files/microchip/xc32/v4.35/bin/bin/../../lib/gcc/pic32c/8.3.1/thumb/v7e-m+fp/hard\libgcc.a(_udivmoddi4.o)
                              c:/program files/microchip/xc32/v4.35/bin/bin/../../lib/gcc/pic32c/8.3.1/thumb/v7e-m+fp/hard\libgcc.a(_aeabi_ldivmod.o) (__udivmoddi4)
c:/program files/microchip/xc32/v4.35/bin/bin/../../lib/gcc/pic32c/8.3.1/thumb/v7e-m+fp/hard\libgcc.a(_dvmd_tls.o)
                              c:/program files/microchip/xc32/v4.35/bin/bin/../../lib/gcc/pic32c/8.3.1/thumb/v7e-m+fp/hard\libgcc.a(_aeabi_ldivmod.o) (__aeabi_ldiv0)
c:/program files/microchip/xc32/v4.35/bin/bin/../../lib/gcc/pic32c/8.3.1/../../../../pic32c/lib/thumb/v7e-m+fp/hard\libpic32c.a(pic32_data_init_clear.o)
                              (__dinit_clear_needed)
c:/program files/microchip/xc32/v4.35/bin/bin/../../lib/gcc/pic32c/8.3.1/../../../../pic32c/lib/thumb/v7e-m+fp/hard\libpic32c.a(pic32_data_init_copy.o)
                              (__dinit_copy_needed)

Microchip PIC32 Memory-Usage Report

ROM Program-Memory Usage
section                    address  length [bytes]      (dec)  Description
-------                 ----------  -------------------------  -----------
.vectors                         0          0x264         612   
.text                        0x264           0x20          32  App's exec code 
.ARM.exidx                   0x284            0x8           8   
.rodata                      0x28c         0x1524        5412  Read-only const 
.text                       0x17b0          0xec4        3780  App's exec code 
.rodata                     0x2674          0xe18        3608  Read-only const 
.text                       0x348c          0xb00        2816  App's exec code 
.rodata                     0x3f8c          0x818        2072  Read-only const 
.text                       0x47a4          0x774        1908  App's exec code 
.rodata                     0x4f18          0x70c        1804  Read-only const 
.rodata                     0x5624          0x70c        1804  Read-only const 
.rodata                     0x5d30          0x70c        1804  Read-only const 
.rodata                     0x643c          0x608        1544  Read-only const 
.text                       0x6a44          0x5c4        1476  App's exec code 
.text                       0x7008          0x4c0        1216  App's exec code 
.text                       0x74c8          0x408        1032  App's exec code 
.rodata                     0x78d0          0x408        1032  Read-only const 
.text                       0x7cd8          0x32c         812  App's exec code 
.text                       0x8004          0x2fc         764  App's exec code 
.text                       0x8300          0x2f4         756  App's exec code 
.text                       0x85f4          0x2bc         700  App's exec code 
.text                       0x88b0          0x1b4         436  App's exec code 
.text                       0x8a64          0x198         408  App's exec code 
.text                       0x8bfc          0x17c         380  App's exec code 
.text                       0x8d78          0x174         372  App's exec code 
.text                       0x8eec          0x154         340  App's exec code 
.text                       0x9040          0x13c         316  App's exec code 
.text                       0x917c          0x13c         316  App's exec code 
.text                       0x92b8          0x138         312  App's exec code 
.text                       0x93f0          0x138         312  App's exec code 
.text.__aeabi_dmul          0x9528          0x130         304   
.text                       0x9658          0x128         296  App's exec code 
.text                       0x9780          0x124         292  App's exec code 
.text                       0x98a4          0x11c         284  App's exec code 
.dinit                      0x99c0          0x110         272   
.rodata                     0x9ad0          0x100         256  Read-only const 
.text                       0x9bd0           0xf4         244  App's exec code 
.text                       0x9cc4           0xd4         212  App's exec code 
.text                       0x9d98           0xd4         212  App's exec code 
.text                       0x9e6c           0xc8         200  App's exec code 
.text                       0x9f34           0xc4         196  App's exec code 
.text                       0x9ff8           0xa8         168  App's exec code 
.text                       0xa0a0           0xa0         160  App's exec code 
.text                       0xa140           0xa0         160  App's exec code 
.text                       0xa1e0           0x98         152  App's exec code 
.text                       0xa278           0x8c         140  App's exec code 
.text                       0xa304           0x8c         140  App's exec code 
.text.Reset_Handler         0xa390           0x8c         140   
.text                       0xa41c           0x8c         140  App's exec code 
.text                       0xa4a8           0x88         136  App's exec code 
.text                       0xa530           0x80         128  App's exec code 
.text                       0xa5b0           0x80         128  App's exec code 
.text                       0xa630           0x7c         124  App's exec code 
.text.__aeabi_f2lz          0xa6ac           0x72         114   
.text                       0xa71e            0x2           2  App's exec code 
.text                       0xa720           0x70         112  App's exec code 
.text                       0xa790           0x64         100  App's exec code 
.text                       0xa7f4           0x60          96  App's exec code 
.text                       0xa854           0x5c          92  App's exec code 
.text                       0xa8b0           0x5c          92  App's exec code 
.text.__libc_start_init     0xa90c           0x5c          92   
.text                       0xa968           0x54          84  App's exec code 
.text                       0xa9bc           0x50          80  App's exec code 
.text                       0xaa0c           0x50          80  App's exec code 
.text                       0xaa5c           0x50          80  App's exec code 
.text                       0xaaac           0x4c          76  App's exec code 
.text                       0xaaf8           0x4c          76  App's exec code 
.text.__pic32c_data_ini     0xab44           0x4c          76   
.text.__aeabi_d2f           0xab90           0x4c          76   
.text                       0xabdc           0x48          72  App's exec code 
.text                       0xac24           0x44          68  App's exec code 
.text                       0xac68           0x40          64  App's exec code 
.text                       0xaca8           0x40          64  App's exec code 
.text                       0xace8           0x3c          60  App's exec code 
.text.__aeabi_dcmple        0xad24           0x3c          60   
.text.__aeabi_dcmpge        0xad60           0x3c          60   
.text                       0xad9c           0x38          56  App's exec code 
.text                       0xadd4           0x38          56  App's exec code 
.text                       0xae0c           0x38          56  App's exec code 
.text                       0xae44           0x38          56  App's exec code 
.text.__aeabi_dcmpgt        0xae7c           0x38          56   
.text.__aeabi_dcmplt        0xaeb4           0x38          56   
.text                       0xaeec           0x34          52  App's exec code 
.text                       0xaf20           0x34          52  App's exec code 
.text                       0xaf54           0x34          52  App's exec code 
.text.__aeabi_f2d           0xaf88           0x34          52   
.text                       0xafbc           0x30          48  App's exec code 
.text                       0xafec           0x2c          44  App's exec code 
.text                       0xb018           0x2c          44  App's exec code 
.text                       0xb044           0x24          36  App's exec code 
.text.__dinit_copy          0xb068           0x1e          30   
.text.__aeabi_ui2d          0xb086           0x1c          28   
.text.__dummy               0xb0a2            0x2           2   
.text.memcpy                0xb0a4           0x1c          28   
.text                       0xb0c0           0x18          24  App's exec code 
.rodata                     0xb0d8           0x14          20  Read-only const 
.rodata                     0xb0ec           0x14          20  Read-only const 
.text.__dinit_clear         0xb100           0x12          18   
.text                       0xb114           0x10          16  App's exec code 
.text                       0xb124            0x4           4  App's exec code 
.text                       0xb128            0x4           4  App's exec code 
.text                       0xb12c            0x4           4  App's exec code 
.text.__dummy_decompres     0xb130            0x4           4   
.text                       0xb134            0x4           4  App's exec code 
      Total ROM used  :      0xb136       45366  4.3% of 0x100000
        --------------------------------------------------------------------------
         Total Program Memory used  :      0xb136       45366  4.3% of 0x100000
        --------------------------------------------------------------------------


RAM Data-Memory Usage
section                    address  length [bytes]      (dec)  Description
-------                 ----------  -------------------------  -----------
.bss                    0x20000000         0x1000        4096  Uninitialized data 
.bss                    0x20001000          0x810        2064  Uninitialized data 
.bss                    0x20001810          0x406        1030  Uninitialized data 
.bss                    0x20001c16            0x2           2  Uninitialized data 
.bss                    0x20001c18          0x188         392  Uninitialized data 
.bss                    0x20001da0           0x6c         108  Uninitialized data 
.bss                    0x20001e0c           0x50          80  Uninitialized data 
.bss                    0x20001e5c           0x31          49  Uninitialized data 
.bss                    0x20001e8d            0x2           2  Uninitialized data 
.data                   0x20001e8f            0x1           1  Initialized data 
.bss                    0x20001e90           0x28          40  Uninitialized data 
.bss                    0x20001eb8           0x1c          28  Uninitialized data 
.bss                    0x20001ed4            0x8           8  Uninitialized data 
.bss                    0x20001edc            0x8           8  Uninitialized data 
.bss                    0x20001ee4            0x8           8  Uninitialized data 
.bss                    0x20001eec            0x4           4  Uninitialized data 
.bss                    0x20001ef0            0x4           4  Uninitialized data 
.data                   0x20001ef4            0x4           4  Initialized data 
.data                   0x20001ef8            0x4           4  Initialized data 
.eh_frame               0x20001efc            0x4           4   
.data                   0x20001f00            0x2           2  Initialized data 
         Total RAM used  :      0x1f02        7938  3.0% of 0x40000
        --------------------------------------------------------------------------
            Total Data Memory used  :      0x1f02        7938  3.0% of 0x40000
        --------------------------------------------------------------------------


Dynamic Data-Memory Reservation
section                    address  length [bytes]      (dec)  Description
-------                 ----------  -------------------------  -----------
heap                    0x20001f08          0x200         512  Reserved for heap 
stack                   0x20002120        0x3ded0      253648  Reserved for stack 

        --------------------------------------------------------------------------

Microchip PIC32 Memory-Usage Report By Module

        text        data         bss         dec         hex    basename                            filename
--------------------------------------------------------------------------------
        5852           2        2064        7918        1eee    X2C.o                           build/default/debug/_ext/546984198/X2C.o
        2816           0        4096        6912        1b00    Scope_Main.o                    build/default/debug/_ext/546984198/Scope_Main.o
        5412           0           0        5412        1524    Sin_Data.o                      build/default/debug/_ext/1455229975/Sin_Data.o
        3608           0           0        3608         e18    Sqrt_Data.o                     build/default/debug/_ext/1455229975/Sqrt_Data.o
        1068           0        1030        2098         832    RamTable.o                      build/default/debug/_ext/546984198/RamTable.o
        1908           0         108        2016         7e0    Services.o                      build/default/debug/_ext/630304036/Services.o
        1804           0           0        1804         70c    Sin2_Data.o                     build/default/debug/_ext/1455229975/Sin2_Data.o
        1804           0           0        1804         70c    Atan_Data.o                     build/default/debug/_ext/1455229975/Atan_Data.o
        1804           0           0        1804         70c    Exp_Data.o                      build/default/debug/_ext/1455229975/Exp_Data.o
        1544           0           0        1544         608    FlashTable.o                    build/default/debug/_ext/546984198/FlashTable.o
        1476           0           8        1484         5cc    LNet.o                          build/default/debug/_ext/1371241226/LNet.o
        1216           0           0        1216         4c0    CommonFcts.o                    build/default/debug/_ext/1455229975/CommonFcts.o
        1032           0           0        1032         408    BlockServices.o                 build/default/debug/_ext/630304036/BlockServices.o
         812           1          49         862         35e    PortConfigX2C.o                 build/default/debug/_ext/546984198/PortConfigX2C.o
         764           0           2         766         2fe    plib_nvmctrl.o                  build/default/debug/_ext/1593096446/plib_nvmctrl.o
         756           0           0         756         2f4    plib_sercom2_usart.o            build/default/debug/_ext/504274921/plib_sercom2_usart.o
         708           0           0         708         2c4    _udivmoddi4.o                   libgcc.a
         616           0           0         616         268    interrupts.o                    build/default/debug/_ext/1171490990/interrupts.o
         172           4         392         568         238    ConfigX2C.o                     build/default/debug/_ext/546984198/ConfigX2C.o
         436           0           0         436         1b4    Sum_Float32.o                   libCortexM4-ATSAM_Math.a
         408           0           8         416         1a0    plib_tcc0.o                     build/default/debug/_ext/60181570/plib_tcc0.o
         380           0           8         388         184    plib_adc0.o                     build/default/debug/_ext/60163342/plib_adc0.o
         372           0           0         372         174    Park_Clarke_inv_SVM_MCHP_FiP16.olibCortexM4-ATSAM_MCHP.a
         340           0           0         340         154    plib_adc1.o                     build/default/debug/_ext/60163342/plib_adc1.o
         296           0          40         336         150    main.o                          build/default/debug/_ext/1360937237/main.o
         328           0           2         330         14a    CRC8CCITT.o                     build/default/debug/_ext/309582698/CRC8CCITT.o
         316           0           0         316         13c    plib_port.o                     build/default/debug/_ext/1865521619/plib_port.o
         316           0           0         316         13c    RateLimiter_FiP16.o             libCortexM4-ATSAM_General.a
         312           0           0         312         138    plib_clock.o                    build/default/debug/_ext/1984496892/plib_clock.o
         312           0           0         312         138    PILimit_FiP16.o                 libCortexM4-ATSAM_Control.a
         304           0           0         304         130    __aeabi_dmul.o                  libm-fast-emfloat.a
         292           0           0         292         124    PI_FiP16.o                      libCortexM4-ATSAM_Control.a
         284           0           0         284         11c    Sequencer_FiP16.o               libCortexM4-ATSAM_General.a
         272           0           0         272         110    data_init                       data_init
         244           0           0         244          f4    SinGen_FiP16.o                  libCortexM4-ATSAM_General.a
         212           0           0         212          d4    Clarke_Park_MCHP_FiP16.o        libCortexM4-ATSAM_MCHP.a
         212           0           0         212          d4    Average_FiP16.o                 libCortexM4-ATSAM_Math.a
         200           0           0         200          c8    plib_pdec.o                     build/default/debug/_ext/1865510628/plib_pdec.o
         196           0           0         196          c4    plib_cmcc.o                     build/default/debug/_ext/1865131932/plib_cmcc.o
         168           0           0         168          a8    AutoSwitch_FiP16.o              libCortexM4-ATSAM_General.a
         160           0           0         160          a0    _aeabi_ldivmod.o                libgcc.a
         160           0           0         160          a0    Real2Int_Float32_FiP8.o         libCortexM4-ATSAM_General.a
         142           0           0         142          8e    startup_xc32.o                  build/default/debug/_ext/1171490990/startup_xc32.o
         140           0           0         140          8c    Gain_FiP16.o                    libCortexM4-ATSAM_General.a
         140           0           0         140          8c    CommunicationUart.o             build/default/debug/_ext/546984198/CommunicationUart.o
         140           0           0         140          8c    plib_nvic.o                     build/default/debug/_ext/1865468468/plib_nvic.o
         136           0           0         136          88    Int2Real_FiP16_Float32.o        libCortexM4-ATSAM_General.a
         128           0           0         128          80    Saturation_FiP16.o              libCortexM4-ATSAM_General.a
         128           0           0         128          80    Gain_Float32.o                  libCortexM4-ATSAM_General.a
         124           0           0         124          7c    plib_evsys.o                    build/default/debug/_ext/1986646378/plib_evsys.o
         114           0           0         114          72    __aeabi_f2lz.o                  libm-fast-emfloat.a
         112           0           0         112          70    Mult_FiP16.o                    libCortexM4-ATSAM_Math.a
          72           4          28         104          68    crtbegin.o                      c:/program files/microchip/xc32/v4.35/bin/bin/../../lib/gcc/pic32c/8.3.1/thumb/v7e-m+fp/hard/crtbegin.o
         100           0           4         104          68    data_init.o                     libpic32c.a
         100           0           0         100          64    Constant_Float32.o              libCortexM4-ATSAM_General.a
          96           0           0          96          60    Selector_FiP16.o                libCortexM4-ATSAM_General.a
          94           0           0          94          5e    __libc_start_main.o             libg-musl.a
          92           0           0          92          5c    ManualSwitch_FiP16.o            libCortexM4-ATSAM_General.a
          92           0           0          92          5c    ManualSwitch_Bool.o             libCortexM4-ATSAM_General.a
          84           0           0          84          54    SerialGeneric.o                 build/default/debug/_ext/2032521757/SerialGeneric.o
          80           0           0          80          50    Sub_FiP16.o                     libCortexM4-ATSAM_Math.a
           0           0          80          80          50    libc.o                          libg-musl.a
          80           0           0          80          50    Constant_FiP16.o                libCortexM4-ATSAM_General.a
          80           0           0          80          50    Add_FiP16.o                     libCortexM4-ATSAM_Math.a
          76           0           0          76          4c    LookupTable_FiP16.o             libCortexM4-ATSAM_General.a
          76           0           0          76          4c    __aeabi_d2f.o                   libm-fast-emfloat.a
          76           0           0          76          4c    TableStruct.o                   build/default/debug/_ext/1455229975/TableStruct.o
          72           0           0          72          48    initialization.o                build/default/debug/_ext/1171490990/initialization.o
          68           0           0          68          44    Constant_Bool.o                 libCortexM4-ATSAM_General.a
          64           0           0          64          40    Mult_Float32.o                  libCortexM4-ATSAM_Math.a
          60           0           0          60          3c    __aeabi_dcmple.o                libm-fast-emfloat.a
          60           0           0          60          3c    __aeabi_dcmpge.o                libm-fast-emfloat.a
          56           0           0          56          38    Negation_FiP16.o                libCortexM4-ATSAM_Math.a
          56           0           0          56          38    uAdd_FiP16.o                    libCortexM4-ATSAM_Math.a
          56           0           0          56          38    __aeabi_dcmplt.o                libm-fast-emfloat.a
          56           0           0          56          38    __aeabi_dcmpgt.o                libm-fast-emfloat.a
          56           0           0          56          38    Sign_FiP16.o                    libCortexM4-ATSAM_Math.a
          56           0           0          56          38    SaveSignal_Float32.o            libCortexM4-ATSAM_General.a
          52           0           0          52          34    __aeabi_f2d.o                   libm-fast-emfloat.a
          52           0           0          52          34    Abs_FiP16.o                     libCortexM4-ATSAM_Math.a
          52           0           0          52          34    TypeConv_Bool_FiP16.o           libCortexM4-ATSAM_General.a
          52           0           0          52          34    TypeConv_FiP16_Bool.o           libCortexM4-ATSAM_General.a
          48           0           0          48          30    _aeabi_uldivmod.o               libgcc.a
          44           0           0          44          2c    plib_eic.o                      build/default/debug/_ext/60167341/plib_eic.o
          44           0           0          44          2c    Not_Bool.o                      libCortexM4-ATSAM_General.a
          30           0           0          30          1e    pic32_data_init_copy.o          libpic32c.a
          28           0           0          28          1c    __aeabi_ui2d.o                  libm-fast-emfloat.a
          28           0           0          28          1c    memcpy.o                        libg-musl.a
          24           0           0          24          18    exceptions.o                    build/default/debug/_ext/1171490990/exceptions.o
          18           0           0          18          12    pic32_data_init_clear.o         libpic32c.a
          16           0           0          16          10    xc32_monitor.o                  build/default/debug/_ext/163028504/xc32_monitor.o
          16           0           0          16          10    crtn.o                          c:/program files/microchip/xc32/v4.35/bin/bin/../../lib/gcc/pic32c/8.3.1/thumb/v7e-m+fp/hard/crtn.o
           8           0           0           8           8    crti.o                          c:/program files/microchip/xc32/v4.35/bin/bin/../../lib/gcc/pic32c/8.3.1/thumb/v7e-m+fp/hard/crti.o
           4           0           0           4           4    libc_syscalls.o                 build/default/debug/_ext/1171490990/libc_syscalls.o
           0           0           4           4           4    __environ.o                     libg-musl.a
           4           0           0           4           4    _dvmd_tls.o                     libgcc.a
           0           4           0           4           4    crtend.o                        c:/program files/microchip/xc32/v4.35/bin/bin/../../lib/gcc/pic32c/8.3.1/thumb/v7e-m+fp/hard/crtend.o
           4           0           0           4           4    bsp.o                           build/default/debug/_ext/1434821282/bsp.o
--------------------------------------------------------------------------------
       45378          15        7923       53316        d044    dist/default/debug/Dyno.X.debug.elf


Discarded input sections

 .xc_stack_usage.hdr
                0x00000000        0xe c:/program files/microchip/xc32/v4.35/bin/bin/../../lib/gcc/pic32c/8.3.1/thumb/v7e-m+fp/hard/crti.o
 .xc_stack_usage
                0x00000000       0x26 c:/program files/microchip/xc32/v4.35/bin/bin/../../lib/gcc/pic32c/8.3.1/thumb/v7e-m+fp/hard/crti.o
 .xc_stack_usage
                0x00000000       0x3c c:/program files/microchip/xc32/v4.35/bin/bin/../../lib/gcc/pic32c/8.3.1/thumb/v7e-m+fp/hard/crtbegin.o
 .xc_stack_usage.hdr
                0x00000000        0xe c:/program files/microchip/xc32/v4.35/bin/bin/../../lib/gcc/pic32c/8.3.1/thumb/v7e-m+fp/hard/crtbegin.o
 .xc_stack_usage
                0x00000000       0x4a c:/program files/microchip/xc32/v4.35/bin/bin/../../lib/gcc/pic32c/8.3.1/../../../../pic32c/lib/thumb/v7e-m+fp/hard\libpic32c.a(data_init.o)
 .xc_stack_usage.hdr
                0x00000000        0xe c:/program files/microchip/xc32/v4.35/bin/bin/../../lib/gcc/pic32c/8.3.1/../../../../pic32c/lib/thumb/v7e-m+fp/hard\libpic32c.a(data_init.o)
 .xc_stack_usage.hdr
                0x00000000        0xe c:/program files/microchip/xc32/v4.35/bin/bin/../../lib/gcc/pic32c/8.3.1/../../../../pic32c/lib/thumb/v7e-m+fp/hard\libm-fast-emfloat.a(__aeabi_dmul.o)
 .xc_stack_usage
                0x00000000       0x1a c:/program files/microchip/xc32/v4.35/bin/bin/../../lib/gcc/pic32c/8.3.1/../../../../pic32c/lib/thumb/v7e-m+fp/hard\libm-fast-emfloat.a(__aeabi_dmul.o)
 .xc_stack_usage.hdr
                0x00000000        0xe c:/program files/microchip/xc32/v4.35/bin/bin/../../lib/gcc/pic32c/8.3.1/../../../../pic32c/lib/thumb/v7e-m+fp/hard\libm-fast-emfloat.a(__aeabi_dcmple.o)
 .xc_stack_usage
                0x00000000       0x1c c:/program files/microchip/xc32/v4.35/bin/bin/../../lib/gcc/pic32c/8.3.1/../../../../pic32c/lib/thumb/v7e-m+fp/hard\libm-fast-emfloat.a(__aeabi_dcmple.o)
 .xc_stack_usage.hdr
                0x00000000        0xe c:/program files/microchip/xc32/v4.35/bin/bin/../../lib/gcc/pic32c/8.3.1/../../../../pic32c/lib/thumb/v7e-m+fp/hard\libm-fast-emfloat.a(__aeabi_dcmpge.o)
 .xc_stack_usage
                0x00000000       0x1c c:/program files/microchip/xc32/v4.35/bin/bin/../../lib/gcc/pic32c/8.3.1/../../../../pic32c/lib/thumb/v7e-m+fp/hard\libm-fast-emfloat.a(__aeabi_dcmpge.o)
 .xc_stack_usage.hdr
                0x00000000        0xe c:/program files/microchip/xc32/v4.35/bin/bin/../../lib/gcc/pic32c/8.3.1/../../../../pic32c/lib/thumb/v7e-m+fp/hard\libm-fast-emfloat.a(__aeabi_dcmpgt.o)
 .xc_stack_usage
                0x00000000       0x1c c:/program files/microchip/xc32/v4.35/bin/bin/../../lib/gcc/pic32c/8.3.1/../../../../pic32c/lib/thumb/v7e-m+fp/hard\libm-fast-emfloat.a(__aeabi_dcmpgt.o)
 .xc_stack_usage.hdr
                0x00000000        0xe c:/program files/microchip/xc32/v4.35/bin/bin/../../lib/gcc/pic32c/8.3.1/../../../../pic32c/lib/thumb/v7e-m+fp/hard\libm-fast-emfloat.a(__aeabi_dcmplt.o)
 .xc_stack_usage
                0x00000000       0x1c c:/program files/microchip/xc32/v4.35/bin/bin/../../lib/gcc/pic32c/8.3.1/../../../../pic32c/lib/thumb/v7e-m+fp/hard\libm-fast-emfloat.a(__aeabi_dcmplt.o)
 .xc_stack_usage.hdr
                0x00000000        0xe c:/program files/microchip/xc32/v4.35/bin/bin/../../lib/gcc/pic32c/8.3.1/../../../../pic32c/lib/thumb/v7e-m+fp/hard\libm-fast-emfloat.a(__aeabi_f2lz.o)
 .xc_stack_usage
                0x00000000       0x1a c:/program files/microchip/xc32/v4.35/bin/bin/../../lib/gcc/pic32c/8.3.1/../../../../pic32c/lib/thumb/v7e-m+fp/hard\libm-fast-emfloat.a(__aeabi_f2lz.o)
 .xc_stack_usage.hdr
                0x00000000        0xe c:/program files/microchip/xc32/v4.35/bin/bin/../../lib/gcc/pic32c/8.3.1/../../../../pic32c/lib/thumb/v7e-m+fp/hard\libm-fast-emfloat.a(__aeabi_ui2d.o)
 .xc_stack_usage
                0x00000000       0x1a c:/program files/microchip/xc32/v4.35/bin/bin/../../lib/gcc/pic32c/8.3.1/../../../../pic32c/lib/thumb/v7e-m+fp/hard\libm-fast-emfloat.a(__aeabi_ui2d.o)
 .xc_stack_usage.hdr
                0x00000000        0xe c:/program files/microchip/xc32/v4.35/bin/bin/../../lib/gcc/pic32c/8.3.1/../../../../pic32c/lib/thumb/v7e-m+fp/hard\libm-fast-emfloat.a(__aeabi_f2d.o)
 .xc_stack_usage
                0x00000000       0x19 c:/program files/microchip/xc32/v4.35/bin/bin/../../lib/gcc/pic32c/8.3.1/../../../../pic32c/lib/thumb/v7e-m+fp/hard\libm-fast-emfloat.a(__aeabi_f2d.o)
 .xc_stack_usage.hdr
                0x00000000        0xe c:/program files/microchip/xc32/v4.35/bin/bin/../../lib/gcc/pic32c/8.3.1/../../../../pic32c/lib/thumb/v7e-m+fp/hard\libm-fast-emfloat.a(__aeabi_d2f.o)
 .xc_stack_usage
                0x00000000       0x19 c:/program files/microchip/xc32/v4.35/bin/bin/../../lib/gcc/pic32c/8.3.1/../../../../pic32c/lib/thumb/v7e-m+fp/hard\libm-fast-emfloat.a(__aeabi_d2f.o)
 .xc_stack_usage
                0x00000000       0x34 c:/program files/microchip/xc32/v4.35/bin/bin/../../lib/gcc/pic32c/8.3.1/../../../../pic32c/lib/thumb/v7e-m+fp/hard\libg-musl.a(__libc_start_main.o)
 .xc_stack_usage.hdr
                0x00000000        0xe c:/program files/microchip/xc32/v4.35/bin/bin/../../lib/gcc/pic32c/8.3.1/../../../../pic32c/lib/thumb/v7e-m+fp/hard\libg-musl.a(__libc_start_main.o)
 .xc_stack_usage.hdr
                0x00000000        0xe c:/program files/microchip/xc32/v4.35/bin/bin/../../lib/gcc/pic32c/8.3.1/../../../../pic32c/lib/thumb/v7e-m+fp/hard\libg-musl.a(libc.o)
 .xc_stack_usage
                0x00000000       0x14 c:/program files/microchip/xc32/v4.35/bin/bin/../../lib/gcc/pic32c/8.3.1/../../../../pic32c/lib/thumb/v7e-m+fp/hard\libg-musl.a(memcpy.o)
 .xc_stack_usage.hdr
                0x00000000        0xe c:/program files/microchip/xc32/v4.35/bin/bin/../../lib/gcc/pic32c/8.3.1/../../../../pic32c/lib/thumb/v7e-m+fp/hard\libg-musl.a(memcpy.o)
 .xc_stack_usage.hdr
                0x00000000        0xe c:/program files/microchip/xc32/v4.35/bin/bin/../../lib/gcc/pic32c/8.3.1/../../../../pic32c/lib/thumb/v7e-m+fp/hard\libg-musl.a(__environ.o)
 .xc_stack_usage.hdr
                0x00000000        0xe c:/program files/microchip/xc32/v4.35/bin/bin/../../lib/gcc/pic32c/8.3.1/thumb/v7e-m+fp/hard\libgcc.a(_aeabi_ldivmod.o)
 .xc_stack_usage
                0x00000000       0x1d c:/program files/microchip/xc32/v4.35/bin/bin/../../lib/gcc/pic32c/8.3.1/thumb/v7e-m+fp/hard\libgcc.a(_aeabi_ldivmod.o)
 .xc_stack_usage.hdr
                0x00000000        0xe c:/program files/microchip/xc32/v4.35/bin/bin/../../lib/gcc/pic32c/8.3.1/thumb/v7e-m+fp/hard\libgcc.a(_aeabi_uldivmod.o)
 .xc_stack_usage
                0x00000000       0x1e c:/program files/microchip/xc32/v4.35/bin/bin/../../lib/gcc/pic32c/8.3.1/thumb/v7e-m+fp/hard\libgcc.a(_aeabi_uldivmod.o)
 .xc_stack_usage
                0x00000000       0x1a c:/program files/microchip/xc32/v4.35/bin/bin/../../lib/gcc/pic32c/8.3.1/thumb/v7e-m+fp/hard\libgcc.a(_udivmoddi4.o)
 .xc_stack_usage.hdr
                0x00000000        0xe c:/program files/microchip/xc32/v4.35/bin/bin/../../lib/gcc/pic32c/8.3.1/thumb/v7e-m+fp/hard\libgcc.a(_udivmoddi4.o)
 .xc_stack_usage.hdr
                0x00000000        0xe c:/program files/microchip/xc32/v4.35/bin/bin/../../lib/gcc/pic32c/8.3.1/thumb/v7e-m+fp/hard\libgcc.a(_dvmd_tls.o)
 .xc_stack_usage
                0x00000000       0x36 c:/program files/microchip/xc32/v4.35/bin/bin/../../lib/gcc/pic32c/8.3.1/thumb/v7e-m+fp/hard\libgcc.a(_dvmd_tls.o)
 .xc_stack_usage.hdr
                0x00000000        0xe c:/program files/microchip/xc32/v4.35/bin/bin/../../lib/gcc/pic32c/8.3.1/thumb/v7e-m+fp/hard/crtend.o
 .xc_stack_usage.hdr
                0x00000000        0xe c:/program files/microchip/xc32/v4.35/bin/bin/../../lib/gcc/pic32c/8.3.1/thumb/v7e-m+fp/hard/crtn.o
 .xc_stack_usage
                0x00000000       0x1b c:/program files/microchip/xc32/v4.35/bin/bin/../../lib/gcc/pic32c/8.3.1/../../../../pic32c/lib/thumb/v7e-m+fp/hard\libpic32c.a(pic32_data_init_clear.o)
 .xc_stack_usage.hdr
                0x00000000        0xe c:/program files/microchip/xc32/v4.35/bin/bin/../../lib/gcc/pic32c/8.3.1/../../../../pic32c/lib/thumb/v7e-m+fp/hard\libpic32c.a(pic32_data_init_clear.o)
 .xc_stack_usage
                0x00000000       0x1a c:/program files/microchip/xc32/v4.35/bin/bin/../../lib/gcc/pic32c/8.3.1/../../../../pic32c/lib/thumb/v7e-m+fp/hard\libpic32c.a(pic32_data_init_copy.o)
 .xc_stack_usage.hdr
                0x00000000        0xe c:/program files/microchip/xc32/v4.35/bin/bin/../../lib/gcc/pic32c/8.3.1/../../../../pic32c/lib/thumb/v7e-m+fp/hard\libpic32c.a(pic32_data_init_copy.o)

Memory Configuration

Name             Origin             Length             Attributes
rom              0x00000000         0x00100000         xrl
ram              0x20000000         0x00040000         xw !r
tcm              0x03000000         0x00000000         xw
bkupram          0x47000000         0x00002000
config_00804000  0x00804000         0x00000004
config_00804004  0x00804004         0x00000004
config_00804008  0x00804008         0x00000004
*default*        0x00000000         0xffffffff

Linker script and memory map

LOAD c:/program files/microchip/xc32/v4.35/bin/bin/../../lib/gcc/pic32c/8.3.1/thumb/v7e-m+fp/hard/crti.o
LOAD c:/program files/microchip/xc32/v4.35/bin/bin/../../lib/gcc/pic32c/8.3.1/thumb/v7e-m+fp/hard/crtbegin.o
LOAD build/default/debug/_ext/1434821282/bsp.o
LOAD build/default/debug/_ext/60163342/plib_adc0.o
LOAD build/default/debug/_ext/60163342/plib_adc1.o
LOAD build/default/debug/_ext/1984496892/plib_clock.o
LOAD build/default/debug/_ext/1865131932/plib_cmcc.o
LOAD build/default/debug/_ext/60167341/plib_eic.o
LOAD build/default/debug/_ext/1986646378/plib_evsys.o
LOAD build/default/debug/_ext/1865468468/plib_nvic.o
LOAD build/default/debug/_ext/1593096446/plib_nvmctrl.o
LOAD build/default/debug/_ext/1865510628/plib_pdec.o
LOAD build/default/debug/_ext/1865521619/plib_port.o
LOAD build/default/debug/_ext/504274921/plib_sercom2_usart.o
LOAD build/default/debug/_ext/60181570/plib_tcc0.o
LOAD build/default/debug/_ext/163028504/xc32_monitor.o
LOAD build/default/debug/_ext/1455229975/Atan_Data.o
LOAD build/default/debug/_ext/1455229975/CommonFcts.o
LOAD build/default/debug/_ext/1455229975/Exp_Data.o
LOAD build/default/debug/_ext/1455229975/Sin2_Data.o
LOAD build/default/debug/_ext/1455229975/Sin_Data.o
LOAD build/default/debug/_ext/1455229975/Sqrt_Data.o
LOAD build/default/debug/_ext/1455229975/TableStruct.o
LOAD build/default/debug/_ext/309582698/CRC8CCITT.o
LOAD build/default/debug/_ext/2032521757/SerialGeneric.o
LOAD build/default/debug/_ext/1371241226/LNet.o
LOAD build/default/debug/_ext/630304036/BlockServices.o
LOAD build/default/debug/_ext/630304036/Services.o
LOAD build/default/debug/_ext/546984198/CommunicationUart.o
LOAD build/default/debug/_ext/546984198/ConfigX2C.o
LOAD build/default/debug/_ext/546984198/FlashTable.o
LOAD build/default/debug/_ext/546984198/PortConfigX2C.o
LOAD build/default/debug/_ext/546984198/RamTable.o
LOAD build/default/debug/_ext/546984198/Scope_Main.o
LOAD build/default/debug/_ext/546984198/X2C.o
LOAD build/default/debug/_ext/1171490990/startup_xc32.o
LOAD build/default/debug/_ext/1171490990/initialization.o
LOAD build/default/debug/_ext/1171490990/interrupts.o
LOAD build/default/debug/_ext/1171490990/exceptions.o
LOAD build/default/debug/_ext/1171490990/libc_syscalls.o
LOAD build/default/debug/_ext/1360937237/main.o
LOAD ..\src\config\default\X2CCode\X2CModel\Library\Control\Controller\lib\libCortexM4-ATSAM_Control.a
LOAD ..\src\config\default\X2CCode\X2CModel\Library\General\Controller\lib\libCortexM4-ATSAM_General.a
LOAD ..\src\config\default\X2CCode\X2CModel\Library\Math\Controller\lib\libCortexM4-ATSAM_Math.a
LOAD ..\src\config\default\X2CCode\X2CModel\Library\MCHP\Controller\lib\libCortexM4-ATSAM_MCHP.a
                0x00000001                __MPLAB_BUILD = 0x1
                0x00100000                __rom_end = (ORIGIN (rom) + LENGTH (rom))
                0x20040000                __ram_end = (ORIGIN (ram) + LENGTH (ram))

.config_00804000
                0x00804000        0x4
 *(.config_00804000)
 .config_00804000
                0x00804000        0x4 build/default/debug/_ext/1171490990/initialization.o
                0x00804000                __config_00804000

.config_00804004
                0x00804004        0x4
 *(.config_00804004)
 .config_00804004
                0x00804004        0x4 build/default/debug/_ext/1171490990/initialization.o
                0x00804004                __config_00804004

.config_00804008
                0x00804008        0x4
 *(.config_00804008)
 .config_00804008
                0x00804008        0x4 build/default/debug/_ext/1171490990/initialization.o
                0x00804008                __config_00804008

.vectors        0x00000000      0x264
                0x00000000                . = ALIGN (0x4)
                0x00000000                _sfixed = .
 *(.vectors .vectors.* .vectors_default .vectors_default.*)
 .vectors       0x00000000      0x264 build/default/debug/_ext/1171490990/interrupts.o
                0x00000000                exception_table
 *(.isr_vector)
 *(.reset*)
 *(.after_vectors)

.text           0x00000264       0x20
                0x00000264                . = ALIGN (0x4)
 *(.glue_7t)
 .glue_7t       0x00000264        0x0 linker stubs
 *(.glue_7)
 .glue_7        0x00000264        0x0 linker stubs
 *(.gnu.linkonce.r.*)
 *(.ARM.extab* .gnu.linkonce.armextab.*)
 .ARM.extab     0x00000264        0x0 c:/program files/microchip/xc32/v4.35/bin/bin/../../lib/gcc/pic32c/8.3.1/thumb/v7e-m+fp/hard\libgcc.a(_udivmoddi4.o)
                0x00000264                . = ALIGN (0x4)
 *(.init)
 .init          0x00000264        0x4 c:/program files/microchip/xc32/v4.35/bin/bin/../../lib/gcc/pic32c/8.3.1/thumb/v7e-m+fp/hard/crti.o
                0x00000264                _init
 .init          0x00000268        0x8 c:/program files/microchip/xc32/v4.35/bin/bin/../../lib/gcc/pic32c/8.3.1/thumb/v7e-m+fp/hard/crtn.o
                0x00000270                . = ALIGN (0x4)
                0x00000270                __preinit_array_start = .
 *(.preinit_array)
                0x00000270                __preinit_array_end = .
                0x00000270                . = ALIGN (0x4)
                0x00000270                __init_array_start = .
 *(SORT_BY_NAME(.init_array.*))
 *(.init_array)
 .init_array    0x00000270        0x4 c:/program files/microchip/xc32/v4.35/bin/bin/../../lib/gcc/pic32c/8.3.1/thumb/v7e-m+fp/hard/crtbegin.o
                0x00000274                __init_array_end = .
                0x00000274                . = ALIGN (0x4)
 *crtbegin.o(.ctors)
 *(EXCLUDE_FILE(*crtend.o) .ctors)
 *(SORT_BY_NAME(.ctors.*))
 *crtend.o(.ctors)
                0x00000274                . = ALIGN (0x4)
 *(.fini)
 .fini          0x00000274        0x4 c:/program files/microchip/xc32/v4.35/bin/bin/../../lib/gcc/pic32c/8.3.1/thumb/v7e-m+fp/hard/crti.o
                0x00000274                _fini
 .fini          0x00000278        0x8 c:/program files/microchip/xc32/v4.35/bin/bin/../../lib/gcc/pic32c/8.3.1/thumb/v7e-m+fp/hard/crtn.o
                0x00000280                . = ALIGN (0x4)
                0x00000280                __fini_array_start = .
 *(.fini_array)
 .fini_array    0x00000280        0x4 c:/program files/microchip/xc32/v4.35/bin/bin/../../lib/gcc/pic32c/8.3.1/thumb/v7e-m+fp/hard/crtbegin.o
 *(SORT_BY_NAME(.fini_array.*))
                0x00000284                __fini_array_end = .
 *crtbegin.o(.dtors)
 *(EXCLUDE_FILE(*crtend.o) .dtors)
 *(SORT_BY_NAME(.dtors.*))
 *crtend.o(.dtors)
                0x00000284                . = ALIGN (0x4)
                0x00000284                _efixed = .
                [!provide]                PROVIDE (__exidx_start = .)

.ARM.exidx      0x00000284        0x8
 *(.ARM.exidx* .gnu.linkonce.armexidx.*)
 .ARM.exidx     0x00000284        0x8 c:/program files/microchip/xc32/v4.35/bin/bin/../../lib/gcc/pic32c/8.3.1/thumb/v7e-m+fp/hard\libgcc.a(_udivmoddi4.o)
                [!provide]                PROVIDE (__exidx_end = .)
                0x0000028c                . = ALIGN (0x4)
                0x0000028c                _etext = .

.bss            0x20000000        0x0
                0x20000000                . = ALIGN (0x4)
                0x20000000                __bss_start__ = .
                0x20000000                _sbss = .
                0x20000000                _szero = .
 *(COMMON)
                0x20000000                . = ALIGN (0x4)
                0x20000000                __bss_end__ = .
                0x20000000                _ebss = .
                0x20000000                _ezero = .
                0x20000000                . = ALIGN (0x4)
                0x20000000                _end = .
                0x2003ffff                _ram_end_ = ((ORIGIN (ram) + LENGTH (ram)) - 0x1)

.bkupram_bss
 *(.bkupram_bss .bkupram_bss.*)
 *(.pbss .pbss.*)
                0x00000001                __ICD2RAM = 0x1
                0x00000001                __MPLAB_DEBUG = 0x1
                0x00000001                __DEBUG = 0x1
                0x00000200                _min_heap_size = 0x200
START GROUP
LOAD c:/program files/microchip/xc32/v4.35/bin/bin/../../lib/gcc/pic32c/8.3.1/../../../../pic32c/lib/thumb/v7e-m+fp/hard\libpic32c.a
LOAD c:/program files/microchip/xc32/v4.35/bin/bin/../../lib/gcc/pic32c/8.3.1/../../../../pic32c/lib/thumb/v7e-m+fp/hard\libm-fast-emfloat.a
LOAD c:/program files/microchip/xc32/v4.35/bin/bin/../../lib/gcc/pic32c/8.3.1/../../../../pic32c/lib/thumb/v7e-m+fp/hard\libg-musl.a
LOAD c:/program files/microchip/xc32/v4.35/bin/bin/../../lib/gcc/pic32c/8.3.1/../../../../pic32c/lib/thumb/v7e-m+fp/hard\libc-musl.a
LOAD c:/program files/microchip/xc32/v4.35/bin/bin/../../lib/gcc/pic32c/8.3.1/../../../../pic32c/lib/thumb/v7e-m+fp/hard\libm-fast-emfloat.a
LOAD c:/program files/microchip/xc32/v4.35/bin/bin/../../lib/gcc/pic32c/8.3.1/thumb/v7e-m+fp/hard\libgcc.a
END GROUP
LOAD c:/program files/microchip/xc32/v4.35/bin/bin/../../lib/gcc/pic32c/8.3.1/thumb/v7e-m+fp/hard/crtend.o
LOAD c:/program files/microchip/xc32/v4.35/bin/bin/../../lib/gcc/pic32c/8.3.1/thumb/v7e-m+fp/hard/crtn.o
OUTPUT(dist/default/debug/Dyno.X.debug.elf elf32-littlearm)
LOAD data_init
LOAD stack

.ARM.attributes
                0x00000000       0x32
 .ARM.attributes
                0x00000000       0x1e c:/program files/microchip/xc32/v4.35/bin/bin/../../lib/gcc/pic32c/8.3.1/thumb/v7e-m+fp/hard/crti.o
 .ARM.attributes
                0x0000001e       0x34 c:/program files/microchip/xc32/v4.35/bin/bin/../../lib/gcc/pic32c/8.3.1/thumb/v7e-m+fp/hard/crtbegin.o
 .ARM.attributes
                0x00000052       0x34 build/default/debug/_ext/1434821282/bsp.o
 .ARM.attributes
                0x00000086       0x34 build/default/debug/_ext/60163342/plib_adc0.o
 .ARM.attributes
                0x000000ba       0x34 build/default/debug/_ext/60163342/plib_adc1.o
 .ARM.attributes
                0x000000ee       0x34 build/default/debug/_ext/1984496892/plib_clock.o
 .ARM.attributes
                0x00000122       0x34 build/default/debug/_ext/1865131932/plib_cmcc.o
 .ARM.attributes
                0x00000156       0x34 build/default/debug/_ext/60167341/plib_eic.o
 .ARM.attributes
                0x0000018a       0x34 build/default/debug/_ext/1986646378/plib_evsys.o
 .ARM.attributes
                0x000001be       0x34 build/default/debug/_ext/1865468468/plib_nvic.o
 .ARM.attributes
                0x000001f2       0x34 build/default/debug/_ext/1593096446/plib_nvmctrl.o
 .ARM.attributes
                0x00000226       0x34 build/default/debug/_ext/1865510628/plib_pdec.o
 .ARM.attributes
                0x0000025a       0x34 build/default/debug/_ext/1865521619/plib_port.o
 .ARM.attributes
                0x0000028e       0x34 build/default/debug/_ext/504274921/plib_sercom2_usart.o
 .ARM.attributes
                0x000002c2       0x34 build/default/debug/_ext/60181570/plib_tcc0.o
 .ARM.attributes
                0x000002f6       0x34 build/default/debug/_ext/163028504/xc32_monitor.o
 .ARM.attributes
                0x0000032a       0x39 build/default/debug/_ext/1455229975/Atan_Data.o
 .ARM.attributes
                0x00000363       0x34 build/default/debug/_ext/1455229975/CommonFcts.o
 .ARM.attributes
                0x00000397       0x39 build/default/debug/_ext/1455229975/Exp_Data.o
 .ARM.attributes
                0x000003d0       0x39 build/default/debug/_ext/1455229975/Sin2_Data.o
 .ARM.attributes
                0x00000409       0x39 build/default/debug/_ext/1455229975/Sin_Data.o
 .ARM.attributes
                0x00000442       0x39 build/default/debug/_ext/1455229975/Sqrt_Data.o
 .ARM.attributes
                0x0000047b       0x34 build/default/debug/_ext/1455229975/TableStruct.o
 .ARM.attributes
                0x000004af       0x34 build/default/debug/_ext/309582698/CRC8CCITT.o
 .ARM.attributes
                0x000004e3       0x34 build/default/debug/_ext/2032521757/SerialGeneric.o
 .ARM.attributes
                0x00000517       0x34 build/default/debug/_ext/1371241226/LNet.o
 .ARM.attributes
                0x0000054b       0x34 build/default/debug/_ext/630304036/BlockServices.o
 .ARM.attributes
                0x0000057f       0x34 build/default/debug/_ext/630304036/Services.o
 .ARM.attributes
                0x000005b3       0x34 build/default/debug/_ext/546984198/CommunicationUart.o
 .ARM.attributes
                0x000005e7       0x34 build/default/debug/_ext/546984198/ConfigX2C.o
 .ARM.attributes
                0x0000061b       0x39 build/default/debug/_ext/546984198/FlashTable.o
 .ARM.attributes
                0x00000654       0x34 build/default/debug/_ext/546984198/PortConfigX2C.o
 .ARM.attributes
                0x00000688       0x34 build/default/debug/_ext/546984198/RamTable.o
 .ARM.attributes
                0x000006bc       0x34 build/default/debug/_ext/546984198/Scope_Main.o
 .ARM.attributes
                0x000006f0       0x34 build/default/debug/_ext/546984198/X2C.o
 .ARM.attributes
                0x00000724       0x34 build/default/debug/_ext/1171490990/startup_xc32.o
 .ARM.attributes
                0x00000758       0x34 build/default/debug/_ext/1171490990/initialization.o
 .ARM.attributes
                0x0000078c       0x34 build/default/debug/_ext/1171490990/interrupts.o
 .ARM.attributes
                0x000007c0       0x34 build/default/debug/_ext/1171490990/exceptions.o
 .ARM.attributes
                0x000007f4       0x34 build/default/debug/_ext/1171490990/libc_syscalls.o
 .ARM.attributes
                0x00000828       0x34 build/default/debug/_ext/1360937237/main.o
 .ARM.attributes
                0x0000085c       0x39 ..\src\config\default\X2CCode\X2CModel\Library\Control\Controller\lib\libCortexM4-ATSAM_Control.a(PILimit_FiP16.o)
 .ARM.attributes
                0x00000895       0x39 ..\src\config\default\X2CCode\X2CModel\Library\Control\Controller\lib\libCortexM4-ATSAM_Control.a(PI_FiP16.o)
 .ARM.attributes
                0x000008ce       0x39 ..\src\config\default\X2CCode\X2CModel\Library\General\Controller\lib\libCortexM4-ATSAM_General.a(AutoSwitch_FiP16.o)
 .ARM.attributes
                0x00000907       0x39 ..\src\config\default\X2CCode\X2CModel\Library\General\Controller\lib\libCortexM4-ATSAM_General.a(Constant_Bool.o)
 .ARM.attributes
                0x00000940       0x39 ..\src\config\default\X2CCode\X2CModel\Library\General\Controller\lib\libCortexM4-ATSAM_General.a(Constant_FiP16.o)
 .ARM.attributes
                0x00000979       0x39 ..\src\config\default\X2CCode\X2CModel\Library\General\Controller\lib\libCortexM4-ATSAM_General.a(Constant_Float32.o)
 .ARM.attributes
                0x000009b2       0x39 ..\src\config\default\X2CCode\X2CModel\Library\General\Controller\lib\libCortexM4-ATSAM_General.a(Gain_FiP16.o)
 .ARM.attributes
                0x000009eb       0x39 ..\src\config\default\X2CCode\X2CModel\Library\General\Controller\lib\libCortexM4-ATSAM_General.a(Gain_Float32.o)
 .ARM.attributes
                0x00000a24       0x39 ..\src\config\default\X2CCode\X2CModel\Library\General\Controller\lib\libCortexM4-ATSAM_General.a(Int2Real_FiP16_Float32.o)
 .ARM.attributes
                0x00000a5d       0x39 ..\src\config\default\X2CCode\X2CModel\Library\General\Controller\lib\libCortexM4-ATSAM_General.a(LookupTable_FiP16.o)
 .ARM.attributes
                0x00000a96       0x39 ..\src\config\default\X2CCode\X2CModel\Library\General\Controller\lib\libCortexM4-ATSAM_General.a(ManualSwitch_Bool.o)
 .ARM.attributes
                0x00000acf       0x39 ..\src\config\default\X2CCode\X2CModel\Library\General\Controller\lib\libCortexM4-ATSAM_General.a(ManualSwitch_FiP16.o)
 .ARM.attributes
                0x00000b08       0x39 ..\src\config\default\X2CCode\X2CModel\Library\General\Controller\lib\libCortexM4-ATSAM_General.a(Not_Bool.o)
 .ARM.attributes
                0x00000b41       0x39 ..\src\config\default\X2CCode\X2CModel\Library\General\Controller\lib\libCortexM4-ATSAM_General.a(RateLimiter_FiP16.o)
 .ARM.attributes
                0x00000b7a       0x39 ..\src\config\default\X2CCode\X2CModel\Library\General\Controller\lib\libCortexM4-ATSAM_General.a(Real2Int_Float32_FiP8.o)
 .ARM.attributes
                0x00000bb3       0x39 ..\src\config\default\X2CCode\X2CModel\Library\General\Controller\lib\libCortexM4-ATSAM_General.a(Saturation_FiP16.o)
 .ARM.attributes
                0x00000bec       0x39 ..\src\config\default\X2CCode\X2CModel\Library\General\Controller\lib\libCortexM4-ATSAM_General.a(SaveSignal_Float32.o)
 .ARM.attributes
                0x00000c25       0x39 ..\src\config\default\X2CCode\X2CModel\Library\General\Controller\lib\libCortexM4-ATSAM_General.a(Selector_FiP16.o)
 .ARM.attributes
                0x00000c5e       0x39 ..\src\config\default\X2CCode\X2CModel\Library\General\Controller\lib\libCortexM4-ATSAM_General.a(Sequencer_FiP16.o)
 .ARM.attributes
                0x00000c97       0x39 ..\src\config\default\X2CCode\X2CModel\Library\General\Controller\lib\libCortexM4-ATSAM_General.a(SinGen_FiP16.o)
 .ARM.attributes
                0x00000cd0       0x39 ..\src\config\default\X2CCode\X2CModel\Library\General\Controller\lib\libCortexM4-ATSAM_General.a(TypeConv_Bool_FiP16.o)
 .ARM.attributes
                0x00000d09       0x39 ..\src\config\default\X2CCode\X2CModel\Library\General\Controller\lib\libCortexM4-ATSAM_General.a(TypeConv_FiP16_Bool.o)
 .ARM.attributes
                0x00000d42       0x39 ..\src\config\default\X2CCode\X2CModel\Library\Math\Controller\lib\libCortexM4-ATSAM_Math.a(Abs_FiP16.o)
 .ARM.attributes
                0x00000d7b       0x39 ..\src\config\default\X2CCode\X2CModel\Library\Math\Controller\lib\libCortexM4-ATSAM_Math.a(Add_FiP16.o)
 .ARM.attributes
                0x00000db4       0x39 ..\src\config\default\X2CCode\X2CModel\Library\Math\Controller\lib\libCortexM4-ATSAM_Math.a(Average_FiP16.o)
 .ARM.attributes
                0x00000ded       0x39 ..\src\config\default\X2CCode\X2CModel\Library\Math\Controller\lib\libCortexM4-ATSAM_Math.a(Mult_FiP16.o)
 .ARM.attributes
                0x00000e26       0x39 ..\src\config\default\X2CCode\X2CModel\Library\Math\Controller\lib\libCortexM4-ATSAM_Math.a(Mult_Float32.o)
 .ARM.attributes
                0x00000e5f       0x39 ..\src\config\default\X2CCode\X2CModel\Library\Math\Controller\lib\libCortexM4-ATSAM_Math.a(Negation_FiP16.o)
 .ARM.attributes
                0x00000e98       0x39 ..\src\config\default\X2CCode\X2CModel\Library\Math\Controller\lib\libCortexM4-ATSAM_Math.a(Sign_FiP16.o)
 .ARM.attributes
                0x00000ed1       0x39 ..\src\config\default\X2CCode\X2CModel\Library\Math\Controller\lib\libCortexM4-ATSAM_Math.a(Sub_FiP16.o)
 .ARM.attributes
                0x00000f0a       0x39 ..\src\config\default\X2CCode\X2CModel\Library\Math\Controller\lib\libCortexM4-ATSAM_Math.a(Sum_Float32.o)
 .ARM.attributes
                0x00000f43       0x39 ..\src\config\default\X2CCode\X2CModel\Library\Math\Controller\lib\libCortexM4-ATSAM_Math.a(uAdd_FiP16.o)
 .ARM.attributes
                0x00000f7c       0x39 ..\src\config\default\X2CCode\X2CModel\Library\MCHP\Controller\lib\libCortexM4-ATSAM_MCHP.a(Park_Clarke_inv_SVM_MCHP_FiP16.o)
 .ARM.attributes
                0x00000fb5       0x39 ..\src\config\default\X2CCode\X2CModel\Library\MCHP\Controller\lib\libCortexM4-ATSAM_MCHP.a(Clarke_Park_MCHP_FiP16.o)
 .ARM.attributes
                0x00000fee       0x34 c:/program files/microchip/xc32/v4.35/bin/bin/../../lib/gcc/pic32c/8.3.1/../../../../pic32c/lib/thumb/v7e-m+fp/hard\libpic32c.a(data_init.o)
 .ARM.attributes
                0x00001022       0x20 c:/program files/microchip/xc32/v4.35/bin/bin/../../lib/gcc/pic32c/8.3.1/../../../../pic32c/lib/thumb/v7e-m+fp/hard\libm-fast-emfloat.a(__aeabi_dmul.o)
 .ARM.attributes
                0x00001042       0x20 c:/program files/microchip/xc32/v4.35/bin/bin/../../lib/gcc/pic32c/8.3.1/../../../../pic32c/lib/thumb/v7e-m+fp/hard\libm-fast-emfloat.a(__aeabi_dcmple.o)
 .ARM.attributes
                0x00001062       0x20 c:/program files/microchip/xc32/v4.35/bin/bin/../../lib/gcc/pic32c/8.3.1/../../../../pic32c/lib/thumb/v7e-m+fp/hard\libm-fast-emfloat.a(__aeabi_dcmpge.o)
 .ARM.attributes
                0x00001082       0x20 c:/program files/microchip/xc32/v4.35/bin/bin/../../lib/gcc/pic32c/8.3.1/../../../../pic32c/lib/thumb/v7e-m+fp/hard\libm-fast-emfloat.a(__aeabi_dcmpgt.o)
 .ARM.attributes
                0x000010a2       0x20 c:/program files/microchip/xc32/v4.35/bin/bin/../../lib/gcc/pic32c/8.3.1/../../../../pic32c/lib/thumb/v7e-m+fp/hard\libm-fast-emfloat.a(__aeabi_dcmplt.o)
 .ARM.attributes
                0x000010c2       0x20 c:/program files/microchip/xc32/v4.35/bin/bin/../../lib/gcc/pic32c/8.3.1/../../../../pic32c/lib/thumb/v7e-m+fp/hard\libm-fast-emfloat.a(__aeabi_f2lz.o)
 .ARM.attributes
                0x000010e2       0x20 c:/program files/microchip/xc32/v4.35/bin/bin/../../lib/gcc/pic32c/8.3.1/../../../../pic32c/lib/thumb/v7e-m+fp/hard\libm-fast-emfloat.a(__aeabi_ui2d.o)
 .ARM.attributes
                0x00001102       0x20 c:/program files/microchip/xc32/v4.35/bin/bin/../../lib/gcc/pic32c/8.3.1/../../../../pic32c/lib/thumb/v7e-m+fp/hard\libm-fast-emfloat.a(__aeabi_f2d.o)
 .ARM.attributes
                0x00001122       0x20 c:/program files/microchip/xc32/v4.35/bin/bin/../../lib/gcc/pic32c/8.3.1/../../../../pic32c/lib/thumb/v7e-m+fp/hard\libm-fast-emfloat.a(__aeabi_d2f.o)
 .ARM.attributes
                0x00001142       0x36 c:/program files/microchip/xc32/v4.35/bin/bin/../../lib/gcc/pic32c/8.3.1/../../../../pic32c/lib/thumb/v7e-m+fp/hard\libg-musl.a(__libc_start_main.o)
 .ARM.attributes
                0x00001178       0x34 c:/program files/microchip/xc32/v4.35/bin/bin/../../lib/gcc/pic32c/8.3.1/../../../../pic32c/lib/thumb/v7e-m+fp/hard\libg-musl.a(libc.o)
 .ARM.attributes
                0x000011ac       0x36 c:/program files/microchip/xc32/v4.35/bin/bin/../../lib/gcc/pic32c/8.3.1/../../../../pic32c/lib/thumb/v7e-m+fp/hard\libg-musl.a(memcpy.o)
 .ARM.attributes
                0x000011e2       0x34 c:/program files/microchip/xc32/v4.35/bin/bin/../../lib/gcc/pic32c/8.3.1/../../../../pic32c/lib/thumb/v7e-m+fp/hard\libg-musl.a(__environ.o)
 .ARM.attributes
                0x00001216       0x1e c:/program files/microchip/xc32/v4.35/bin/bin/../../lib/gcc/pic32c/8.3.1/thumb/v7e-m+fp/hard\libgcc.a(_aeabi_ldivmod.o)
 .ARM.attributes
                0x00001234       0x1e c:/program files/microchip/xc32/v4.35/bin/bin/../../lib/gcc/pic32c/8.3.1/thumb/v7e-m+fp/hard\libgcc.a(_aeabi_uldivmod.o)
 .ARM.attributes
                0x00001252       0x34 c:/program files/microchip/xc32/v4.35/bin/bin/../../lib/gcc/pic32c/8.3.1/thumb/v7e-m+fp/hard\libgcc.a(_udivmoddi4.o)
 .ARM.attributes
                0x00001286       0x1e c:/program files/microchip/xc32/v4.35/bin/bin/../../lib/gcc/pic32c/8.3.1/thumb/v7e-m+fp/hard\libgcc.a(_dvmd_tls.o)
 .ARM.attributes
                0x000012a4       0x32 c:/program files/microchip/xc32/v4.35/bin/bin/../../lib/gcc/pic32c/8.3.1/thumb/v7e-m+fp/hard/crtend.o
 .ARM.attributes
                0x000012d6       0x1e c:/program files/microchip/xc32/v4.35/bin/bin/../../lib/gcc/pic32c/8.3.1/thumb/v7e-m+fp/hard/crtn.o
 .ARM.attributes
                0x000012f4       0x34 c:/program files/microchip/xc32/v4.35/bin/bin/../../lib/gcc/pic32c/8.3.1/../../../../pic32c/lib/thumb/v7e-m+fp/hard\libpic32c.a(pic32_data_init_clear.o)
 .ARM.attributes
                0x00001328       0x34 c:/program files/microchip/xc32/v4.35/bin/bin/../../lib/gcc/pic32c/8.3.1/../../../../pic32c/lib/thumb/v7e-m+fp/hard\libpic32c.a(pic32_data_init_copy.o)

.comment        0x00000000       0xa3
 .comment       0x00000000       0x2b c:/program files/microchip/xc32/v4.35/bin/bin/../../lib/gcc/pic32c/8.3.1/thumb/v7e-m+fp/hard/crtbegin.o
                                 0x2c (size before relaxing)
 .comment       0x0000002b       0x2c build/default/debug/_ext/1434821282/bsp.o
 .comment       0x0000002b       0x2c build/default/debug/_ext/60163342/plib_adc0.o
 .comment       0x0000002b       0x2c build/default/debug/_ext/60163342/plib_adc1.o
 .comment       0x0000002b       0x2c build/default/debug/_ext/1984496892/plib_clock.o
 .comment       0x0000002b       0x2c build/default/debug/_ext/1865131932/plib_cmcc.o
 .comment       0x0000002b       0x2c build/default/debug/_ext/60167341/plib_eic.o
 .comment       0x0000002b       0x2c build/default/debug/_ext/1986646378/plib_evsys.o
 .comment       0x0000002b       0x2c build/default/debug/_ext/1865468468/plib_nvic.o
 .comment       0x0000002b       0x2c build/default/debug/_ext/1593096446/plib_nvmctrl.o
 .comment       0x0000002b       0x2c build/default/debug/_ext/1865510628/plib_pdec.o
 .comment       0x0000002b       0x2c build/default/debug/_ext/1865521619/plib_port.o
 .comment       0x0000002b       0x2c build/default/debug/_ext/504274921/plib_sercom2_usart.o
 .comment       0x0000002b       0x2c build/default/debug/_ext/60181570/plib_tcc0.o
 .comment       0x0000002b       0x2c build/default/debug/_ext/163028504/xc32_monitor.o
 .comment       0x0000002b       0x2c build/default/debug/_ext/1455229975/Atan_Data.o
 .comment       0x0000002b       0x2c build/default/debug/_ext/1455229975/CommonFcts.o
 .comment       0x0000002b       0x2c build/default/debug/_ext/1455229975/Exp_Data.o
 .comment       0x0000002b       0x2c build/default/debug/_ext/1455229975/Sin2_Data.o
 .comment       0x0000002b       0x2c build/default/debug/_ext/1455229975/Sin_Data.o
 .comment       0x0000002b       0x2c build/default/debug/_ext/1455229975/Sqrt_Data.o
 .comment       0x0000002b       0x2c build/default/debug/_ext/1455229975/TableStruct.o
 .comment       0x0000002b       0x2c build/default/debug/_ext/309582698/CRC8CCITT.o
 .comment       0x0000002b       0x2c build/default/debug/_ext/2032521757/SerialGeneric.o
 .comment       0x0000002b       0x2c build/default/debug/_ext/1371241226/LNet.o
 .comment       0x0000002b       0x2c build/default/debug/_ext/630304036/BlockServices.o
 .comment       0x0000002b       0x2c build/default/debug/_ext/630304036/Services.o
 .comment       0x0000002b       0x2c build/default/debug/_ext/546984198/CommunicationUart.o
 .comment       0x0000002b       0x2c build/default/debug/_ext/546984198/ConfigX2C.o
 .comment       0x0000002b       0x2c build/default/debug/_ext/546984198/FlashTable.o
 .comment       0x0000002b       0x2c build/default/debug/_ext/546984198/PortConfigX2C.o
 .comment       0x0000002b       0x2c build/default/debug/_ext/546984198/RamTable.o
 .comment       0x0000002b       0x2c build/default/debug/_ext/546984198/Scope_Main.o
 .comment       0x0000002b       0x2c build/default/debug/_ext/546984198/X2C.o
 .comment       0x0000002b       0x2c build/default/debug/_ext/1171490990/startup_xc32.o
 .comment       0x0000002b       0x2c build/default/debug/_ext/1171490990/initialization.o
 .comment       0x0000002b       0x2c build/default/debug/_ext/1171490990/interrupts.o
 .comment       0x0000002b       0x2c build/default/debug/_ext/1171490990/exceptions.o
 .comment       0x0000002b       0x2c build/default/debug/_ext/1171490990/libc_syscalls.o
 .comment       0x0000002b       0x2c build/default/debug/_ext/1360937237/main.o
 .comment       0x0000002b       0x3c ..\src\config\default\X2CCode\X2CModel\Library\Control\Controller\lib\libCortexM4-ATSAM_Control.a(PILimit_FiP16.o)
                                 0x3d (size before relaxing)
 .comment       0x00000067       0x3d ..\src\config\default\X2CCode\X2CModel\Library\Control\Controller\lib\libCortexM4-ATSAM_Control.a(PI_FiP16.o)
 .comment       0x00000067       0x3d ..\src\config\default\X2CCode\X2CModel\Library\General\Controller\lib\libCortexM4-ATSAM_General.a(AutoSwitch_FiP16.o)
 .comment       0x00000067       0x3d ..\src\config\default\X2CCode\X2CModel\Library\General\Controller\lib\libCortexM4-ATSAM_General.a(Constant_Bool.o)
 .comment       0x00000067       0x3d ..\src\config\default\X2CCode\X2CModel\Library\General\Controller\lib\libCortexM4-ATSAM_General.a(Constant_FiP16.o)
 .comment       0x00000067       0x3d ..\src\config\default\X2CCode\X2CModel\Library\General\Controller\lib\libCortexM4-ATSAM_General.a(Constant_Float32.o)
 .comment       0x00000067       0x3d ..\src\config\default\X2CCode\X2CModel\Library\General\Controller\lib\libCortexM4-ATSAM_General.a(Gain_FiP16.o)
 .comment       0x00000067       0x3d ..\src\config\default\X2CCode\X2CModel\Library\General\Controller\lib\libCortexM4-ATSAM_General.a(Gain_Float32.o)
 .comment       0x00000067       0x3d ..\src\config\default\X2CCode\X2CModel\Library\General\Controller\lib\libCortexM4-ATSAM_General.a(Int2Real_FiP16_Float32.o)
 .comment       0x00000067       0x3d ..\src\config\default\X2CCode\X2CModel\Library\General\Controller\lib\libCortexM4-ATSAM_General.a(LookupTable_FiP16.o)
 .comment       0x00000067       0x3d ..\src\config\default\X2CCode\X2CModel\Library\General\Controller\lib\libCortexM4-ATSAM_General.a(ManualSwitch_Bool.o)
 .comment       0x00000067       0x3d ..\src\config\default\X2CCode\X2CModel\Library\General\Controller\lib\libCortexM4-ATSAM_General.a(ManualSwitch_FiP16.o)
 .comment       0x00000067       0x3d ..\src\config\default\X2CCode\X2CModel\Library\General\Controller\lib\libCortexM4-ATSAM_General.a(Not_Bool.o)
 .comment       0x00000067       0x3d ..\src\config\default\X2CCode\X2CModel\Library\General\Controller\lib\libCortexM4-ATSAM_General.a(RateLimiter_FiP16.o)
 .comment       0x00000067       0x3d ..\src\config\default\X2CCode\X2CModel\Library\General\Controller\lib\libCortexM4-ATSAM_General.a(Real2Int_Float32_FiP8.o)
 .comment       0x00000067       0x3d ..\src\config\default\X2CCode\X2CModel\Library\General\Controller\lib\libCortexM4-ATSAM_General.a(Saturation_FiP16.o)
 .comment       0x00000067       0x3d ..\src\config\default\X2CCode\X2CModel\Library\General\Controller\lib\libCortexM4-ATSAM_General.a(SaveSignal_Float32.o)
 .comment       0x00000067       0x3d ..\src\config\default\X2CCode\X2CModel\Library\General\Controller\lib\libCortexM4-ATSAM_General.a(Selector_FiP16.o)
 .comment       0x00000067       0x3d ..\src\config\default\X2CCode\X2CModel\Library\General\Controller\lib\libCortexM4-ATSAM_General.a(Sequencer_FiP16.o)
 .comment       0x00000067       0x3d ..\src\config\default\X2CCode\X2CModel\Library\General\Controller\lib\libCortexM4-ATSAM_General.a(SinGen_FiP16.o)
 .comment       0x00000067       0x3d ..\src\config\default\X2CCode\X2CModel\Library\General\Controller\lib\libCortexM4-ATSAM_General.a(TypeConv_Bool_FiP16.o)
 .comment       0x00000067       0x3d ..\src\config\default\X2CCode\X2CModel\Library\General\Controller\lib\libCortexM4-ATSAM_General.a(TypeConv_FiP16_Bool.o)
 .comment       0x00000067       0x3d ..\src\config\default\X2CCode\X2CModel\Library\Math\Controller\lib\libCortexM4-ATSAM_Math.a(Abs_FiP16.o)
 .comment       0x00000067       0x3d ..\src\config\default\X2CCode\X2CModel\Library\Math\Controller\lib\libCortexM4-ATSAM_Math.a(Add_FiP16.o)
 .comment       0x00000067       0x3d ..\src\config\default\X2CCode\X2CModel\Library\Math\Controller\lib\libCortexM4-ATSAM_Math.a(Average_FiP16.o)
 .comment       0x00000067       0x3d ..\src\config\default\X2CCode\X2CModel\Library\Math\Controller\lib\libCortexM4-ATSAM_Math.a(Mult_FiP16.o)
 .comment       0x00000067       0x3d ..\src\config\default\X2CCode\X2CModel\Library\Math\Controller\lib\libCortexM4-ATSAM_Math.a(Mult_Float32.o)
 .comment       0x00000067       0x3d ..\src\config\default\X2CCode\X2CModel\Library\Math\Controller\lib\libCortexM4-ATSAM_Math.a(Negation_FiP16.o)
 .comment       0x00000067       0x3d ..\src\config\default\X2CCode\X2CModel\Library\Math\Controller\lib\libCortexM4-ATSAM_Math.a(Sign_FiP16.o)
 .comment       0x00000067       0x3d ..\src\config\default\X2CCode\X2CModel\Library\Math\Controller\lib\libCortexM4-ATSAM_Math.a(Sub_FiP16.o)
 .comment       0x00000067       0x3d ..\src\config\default\X2CCode\X2CModel\Library\Math\Controller\lib\libCortexM4-ATSAM_Math.a(Sum_Float32.o)
 .comment       0x00000067       0x3d ..\src\config\default\X2CCode\X2CModel\Library\Math\Controller\lib\libCortexM4-ATSAM_Math.a(uAdd_FiP16.o)
 .comment       0x00000067       0x3c ..\src\config\default\X2CCode\X2CModel\Library\MCHP\Controller\lib\libCortexM4-ATSAM_MCHP.a(Park_Clarke_inv_SVM_MCHP_FiP16.o)
                                 0x3d (size before relaxing)
 .comment       0x000000a3       0x3d ..\src\config\default\X2CCode\X2CModel\Library\MCHP\Controller\lib\libCortexM4-ATSAM_MCHP.a(Clarke_Park_MCHP_FiP16.o)
 .comment       0x000000a3       0x2c c:/program files/microchip/xc32/v4.35/bin/bin/../../lib/gcc/pic32c/8.3.1/../../../../pic32c/lib/thumb/v7e-m+fp/hard\libpic32c.a(data_init.o)
 .comment       0x000000a3       0x2c c:/program files/microchip/xc32/v4.35/bin/bin/../../lib/gcc/pic32c/8.3.1/../../../../pic32c/lib/thumb/v7e-m+fp/hard\libg-musl.a(__libc_start_main.o)
 .comment       0x000000a3       0x2c c:/program files/microchip/xc32/v4.35/bin/bin/../../lib/gcc/pic32c/8.3.1/../../../../pic32c/lib/thumb/v7e-m+fp/hard\libg-musl.a(libc.o)
 .comment       0x000000a3       0x2c c:/program files/microchip/xc32/v4.35/bin/bin/../../lib/gcc/pic32c/8.3.1/../../../../pic32c/lib/thumb/v7e-m+fp/hard\libg-musl.a(memcpy.o)
 .comment       0x000000a3       0x2c c:/program files/microchip/xc32/v4.35/bin/bin/../../lib/gcc/pic32c/8.3.1/../../../../pic32c/lib/thumb/v7e-m+fp/hard\libg-musl.a(__environ.o)
 .comment       0x000000a3       0x2c c:/program files/microchip/xc32/v4.35/bin/bin/../../lib/gcc/pic32c/8.3.1/thumb/v7e-m+fp/hard\libgcc.a(_udivmoddi4.o)
 .comment       0x000000a3       0x2c c:/program files/microchip/xc32/v4.35/bin/bin/../../lib/gcc/pic32c/8.3.1/thumb/v7e-m+fp/hard/crtend.o
 .comment       0x000000a3       0x2c c:/program files/microchip/xc32/v4.35/bin/bin/../../lib/gcc/pic32c/8.3.1/../../../../pic32c/lib/thumb/v7e-m+fp/hard\libpic32c.a(pic32_data_init_clear.o)
 .comment       0x000000a3       0x2c c:/program files/microchip/xc32/v4.35/bin/bin/../../lib/gcc/pic32c/8.3.1/../../../../pic32c/lib/thumb/v7e-m+fp/hard\libpic32c.a(pic32_data_init_copy.o)

.debug_info     0x00000000    0x2410b
 .debug_info    0x00000000      0x2f3 build/default/debug/_ext/1434821282/bsp.o
 .debug_info    0x000002f3      0xe23 build/default/debug/_ext/60163342/plib_adc0.o
 .debug_info    0x00001116      0xd20 build/default/debug/_ext/60163342/plib_adc1.o
 .debug_info    0x00001e36      0xb57 build/default/debug/_ext/1984496892/plib_clock.o
 .debug_info    0x0000298d      0x52b build/default/debug/_ext/1865131932/plib_cmcc.o
 .debug_info    0x00002eb8      0x504 build/default/debug/_ext/60167341/plib_eic.o
 .debug_info    0x000033bc      0x73c build/default/debug/_ext/1986646378/plib_evsys.o
 .debug_info    0x00003af8     0x1483 build/default/debug/_ext/1865468468/plib_nvic.o
 .debug_info    0x00004f7b      0xe99 build/default/debug/_ext/1593096446/plib_nvmctrl.o
 .debug_info    0x00005e14      0x71c build/default/debug/_ext/1865510628/plib_pdec.o
 .debug_info    0x00006530     0x10c9 build/default/debug/_ext/1865521619/plib_port.o
 .debug_info    0x000075f9     0x15fc build/default/debug/_ext/504274921/plib_sercom2_usart.o
 .debug_info    0x00008bf5      0xa92 build/default/debug/_ext/60181570/plib_tcc0.o
 .debug_info    0x00009687      0x324 build/default/debug/_ext/163028504/xc32_monitor.o
 .debug_info    0x000099ab      0x434 build/default/debug/_ext/1455229975/Atan_Data.o
 .debug_info    0x00009ddf     0x13ee build/default/debug/_ext/1455229975/CommonFcts.o
 .debug_info    0x0000b1cd      0x430 build/default/debug/_ext/1455229975/Exp_Data.o
 .debug_info    0x0000b5fd      0x434 build/default/debug/_ext/1455229975/Sin2_Data.o
 .debug_info    0x0000ba31      0x50f build/default/debug/_ext/1455229975/Sin_Data.o
 .debug_info    0x0000bf40      0x4ab build/default/debug/_ext/1455229975/Sqrt_Data.o
 .debug_info    0x0000c3eb      0xf6f build/default/debug/_ext/1455229975/TableStruct.o
 .debug_info    0x0000d35a      0x4c9 build/default/debug/_ext/309582698/CRC8CCITT.o
 .debug_info    0x0000d823      0x6fa build/default/debug/_ext/2032521757/SerialGeneric.o
 .debug_info    0x0000df1d     0x1f4f build/default/debug/_ext/1371241226/LNet.o
 .debug_info    0x0000fe6c     0x1440 build/default/debug/_ext/630304036/BlockServices.o
 .debug_info    0x000112ac     0x1ef3 build/default/debug/_ext/630304036/Services.o
 .debug_info    0x0001319f      0x843 build/default/debug/_ext/546984198/CommunicationUart.o
 .debug_info    0x000139e2     0x15ce build/default/debug/_ext/546984198/ConfigX2C.o
 .debug_info    0x00014fb0      0x350 build/default/debug/_ext/546984198/FlashTable.o
 .debug_info    0x00015300     0x2e42 build/default/debug/_ext/546984198/PortConfigX2C.o
 .debug_info    0x00018142      0x3db build/default/debug/_ext/546984198/RamTable.o
 .debug_info    0x0001851d     0x1af8 build/default/debug/_ext/546984198/Scope_Main.o
 .debug_info    0x0001a015     0x4591 build/default/debug/_ext/546984198/X2C.o
 .debug_info    0x0001e5a6      0x897 build/default/debug/_ext/1171490990/startup_xc32.o
 .debug_info    0x0001ee3d      0x465 build/default/debug/_ext/1171490990/initialization.o
 .debug_info    0x0001f2a2     0x1712 build/default/debug/_ext/1171490990/interrupts.o
 .debug_info    0x000209b4      0x3ad build/default/debug/_ext/1171490990/exceptions.o
 .debug_info    0x00020d61      0x303 build/default/debug/_ext/1171490990/libc_syscalls.o
 .debug_info    0x00021064      0xf9c build/default/debug/_ext/1360937237/main.o
 .debug_info    0x00022000      0x2c3 c:/program files/microchip/xc32/v4.35/bin/bin/../../lib/gcc/pic32c/8.3.1/../../../../pic32c/lib/thumb/v7e-m+fp/hard\libpic32c.a(data_init.o)
 .debug_info    0x000222c3      0x620 c:/program files/microchip/xc32/v4.35/bin/bin/../../lib/gcc/pic32c/8.3.1/../../../../pic32c/lib/thumb/v7e-m+fp/hard\libg-musl.a(__libc_start_main.o)
 .debug_info    0x000228e3      0x532 c:/program files/microchip/xc32/v4.35/bin/bin/../../lib/gcc/pic32c/8.3.1/../../../../pic32c/lib/thumb/v7e-m+fp/hard\libg-musl.a(libc.o)
 .debug_info    0x00022e15      0x2f8 c:/program files/microchip/xc32/v4.35/bin/bin/../../lib/gcc/pic32c/8.3.1/../../../../pic32c/lib/thumb/v7e-m+fp/hard\libg-musl.a(memcpy.o)
 .debug_info    0x0002310d      0x2ac c:/program files/microchip/xc32/v4.35/bin/bin/../../lib/gcc/pic32c/8.3.1/../../../../pic32c/lib/thumb/v7e-m+fp/hard\libg-musl.a(__environ.o)
 .debug_info    0x000233b9       0x26 c:/program files/microchip/xc32/v4.35/bin/bin/../../lib/gcc/pic32c/8.3.1/thumb/v7e-m+fp/hard\libgcc.a(_aeabi_ldivmod.o)
 .debug_info    0x000233df       0x26 c:/program files/microchip/xc32/v4.35/bin/bin/../../lib/gcc/pic32c/8.3.1/thumb/v7e-m+fp/hard\libgcc.a(_aeabi_uldivmod.o)
 .debug_info    0x00023405      0x7a9 c:/program files/microchip/xc32/v4.35/bin/bin/../../lib/gcc/pic32c/8.3.1/thumb/v7e-m+fp/hard\libgcc.a(_udivmoddi4.o)
 .debug_info    0x00023bae       0x26 c:/program files/microchip/xc32/v4.35/bin/bin/../../lib/gcc/pic32c/8.3.1/thumb/v7e-m+fp/hard\libgcc.a(_dvmd_tls.o)
 .debug_info    0x00023bd4      0x29c c:/program files/microchip/xc32/v4.35/bin/bin/../../lib/gcc/pic32c/8.3.1/../../../../pic32c/lib/thumb/v7e-m+fp/hard\libpic32c.a(pic32_data_init_clear.o)
 .debug_info    0x00023e70      0x29b c:/program files/microchip/xc32/v4.35/bin/bin/../../lib/gcc/pic32c/8.3.1/../../../../pic32c/lib/thumb/v7e-m+fp/hard\libpic32c.a(pic32_data_init_copy.o)

.debug_abbrev   0x00000000     0x41a5
 .debug_abbrev  0x00000000       0x39 build/default/debug/_ext/1434821282/bsp.o
 .debug_abbrev  0x00000039      0x214 build/default/debug/_ext/60163342/plib_adc0.o
 .debug_abbrev  0x0000024d      0x1b2 build/default/debug/_ext/60163342/plib_adc1.o
 .debug_abbrev  0x000003ff      0x125 build/default/debug/_ext/1984496892/plib_clock.o
 .debug_abbrev  0x00000524       0x97 build/default/debug/_ext/1865131932/plib_cmcc.o
 .debug_abbrev  0x000005bb       0x97 build/default/debug/_ext/60167341/plib_eic.o
 .debug_abbrev  0x00000652      0x126 build/default/debug/_ext/1986646378/plib_evsys.o
 .debug_abbrev  0x00000778      0x21b build/default/debug/_ext/1865468468/plib_nvic.o
 .debug_abbrev  0x00000993      0x313 build/default/debug/_ext/1593096446/plib_nvmctrl.o
 .debug_abbrev  0x00000ca6      0x112 build/default/debug/_ext/1865510628/plib_pdec.o
 .debug_abbrev  0x00000db8      0x1c3 build/default/debug/_ext/1865521619/plib_port.o
 .debug_abbrev  0x00000f7b      0x315 build/default/debug/_ext/504274921/plib_sercom2_usart.o
 .debug_abbrev  0x00001290      0x1c5 build/default/debug/_ext/60181570/plib_tcc0.o
 .debug_abbrev  0x00001455       0x95 build/default/debug/_ext/163028504/xc32_monitor.o
 .debug_abbrev  0x000014ea       0x65 build/default/debug/_ext/1455229975/Atan_Data.o
 .debug_abbrev  0x0000154f      0x306 build/default/debug/_ext/1455229975/CommonFcts.o
 .debug_abbrev  0x00001855       0x65 build/default/debug/_ext/1455229975/Exp_Data.o
 .debug_abbrev  0x000018ba       0x65 build/default/debug/_ext/1455229975/Sin2_Data.o
 .debug_abbrev  0x0000191f       0x74 build/default/debug/_ext/1455229975/Sin_Data.o
 .debug_abbrev  0x00001993       0x65 build/default/debug/_ext/1455229975/Sqrt_Data.o
 .debug_abbrev  0x000019f8      0x197 build/default/debug/_ext/1455229975/TableStruct.o
 .debug_abbrev  0x00001b8f      0x103 build/default/debug/_ext/309582698/CRC8CCITT.o
 .debug_abbrev  0x00001c92      0x180 build/default/debug/_ext/2032521757/SerialGeneric.o
 .debug_abbrev  0x00001e12      0x3fd build/default/debug/_ext/1371241226/LNet.o
 .debug_abbrev  0x0000220f      0x2d3 build/default/debug/_ext/630304036/BlockServices.o
 .debug_abbrev  0x000024e2      0x37b build/default/debug/_ext/630304036/Services.o
 .debug_abbrev  0x0000285d      0x282 build/default/debug/_ext/546984198/CommunicationUart.o
 .debug_abbrev  0x00002adf      0x29e build/default/debug/_ext/546984198/ConfigX2C.o
 .debug_abbrev  0x00002d7d       0x65 build/default/debug/_ext/546984198/FlashTable.o
 .debug_abbrev  0x00002de2      0x27c build/default/debug/_ext/546984198/PortConfigX2C.o
 .debug_abbrev  0x0000305e       0xb7 build/default/debug/_ext/546984198/RamTable.o
 .debug_abbrev  0x00003115      0x3d6 build/default/debug/_ext/546984198/Scope_Main.o
 .debug_abbrev  0x000034eb      0x28a build/default/debug/_ext/546984198/X2C.o
 .debug_abbrev  0x00003775      0x1db build/default/debug/_ext/1171490990/startup_xc32.o
 .debug_abbrev  0x00003950       0x97 build/default/debug/_ext/1171490990/initialization.o
 .debug_abbrev  0x000039e7       0xb3 build/default/debug/_ext/1171490990/interrupts.o
 .debug_abbrev  0x00003a9a       0x59 build/default/debug/_ext/1171490990/exceptions.o
 .debug_abbrev  0x00003af3       0x4d build/default/debug/_ext/1171490990/libc_syscalls.o
 .debug_abbrev  0x00003b40      0x1d5 build/default/debug/_ext/1360937237/main.o
 .debug_abbrev  0x00003d15       0x44 c:/program files/microchip/xc32/v4.35/bin/bin/../../lib/gcc/pic32c/8.3.1/../../../../pic32c/lib/thumb/v7e-m+fp/hard\libpic32c.a(data_init.o)
 .debug_abbrev  0x00003d59      0x117 c:/program files/microchip/xc32/v4.35/bin/bin/../../lib/gcc/pic32c/8.3.1/../../../../pic32c/lib/thumb/v7e-m+fp/hard\libg-musl.a(__libc_start_main.o)
 .debug_abbrev  0x00003e70       0xb8 c:/program files/microchip/xc32/v4.35/bin/bin/../../lib/gcc/pic32c/8.3.1/../../../../pic32c/lib/thumb/v7e-m+fp/hard\libg-musl.a(libc.o)
 .debug_abbrev  0x00003f28       0x9c c:/program files/microchip/xc32/v4.35/bin/bin/../../lib/gcc/pic32c/8.3.1/../../../../pic32c/lib/thumb/v7e-m+fp/hard\libg-musl.a(memcpy.o)
 .debug_abbrev  0x00003fc4       0x57 c:/program files/microchip/xc32/v4.35/bin/bin/../../lib/gcc/pic32c/8.3.1/../../../../pic32c/lib/thumb/v7e-m+fp/hard\libg-musl.a(__environ.o)
 .debug_abbrev  0x0000401b       0x14 c:/program files/microchip/xc32/v4.35/bin/bin/../../lib/gcc/pic32c/8.3.1/thumb/v7e-m+fp/hard\libgcc.a(_aeabi_ldivmod.o)
 .debug_abbrev  0x0000402f       0x14 c:/program files/microchip/xc32/v4.35/bin/bin/../../lib/gcc/pic32c/8.3.1/thumb/v7e-m+fp/hard\libgcc.a(_aeabi_uldivmod.o)
 .debug_abbrev  0x00004043       0xf2 c:/program files/microchip/xc32/v4.35/bin/bin/../../lib/gcc/pic32c/8.3.1/thumb/v7e-m+fp/hard\libgcc.a(_udivmoddi4.o)
 .debug_abbrev  0x00004135       0x14 c:/program files/microchip/xc32/v4.35/bin/bin/../../lib/gcc/pic32c/8.3.1/thumb/v7e-m+fp/hard\libgcc.a(_dvmd_tls.o)
 .debug_abbrev  0x00004149       0x2e c:/program files/microchip/xc32/v4.35/bin/bin/../../lib/gcc/pic32c/8.3.1/../../../../pic32c/lib/thumb/v7e-m+fp/hard\libpic32c.a(pic32_data_init_clear.o)
 .debug_abbrev  0x00004177       0x2e c:/program files/microchip/xc32/v4.35/bin/bin/../../lib/gcc/pic32c/8.3.1/../../../../pic32c/lib/thumb/v7e-m+fp/hard\libpic32c.a(pic32_data_init_copy.o)

.debug_aranges  0x00000000      0x618
 .debug_aranges
                0x00000000       0x20 build/default/debug/_ext/1434821282/bsp.o
 .debug_aranges
                0x00000020       0x20 build/default/debug/_ext/60163342/plib_adc0.o
 .debug_aranges
                0x00000040       0x20 build/default/debug/_ext/60163342/plib_adc1.o
 .debug_aranges
                0x00000060       0x20 build/default/debug/_ext/1984496892/plib_clock.o
 .debug_aranges
                0x00000080       0x20 build/default/debug/_ext/1865131932/plib_cmcc.o
 .debug_aranges
                0x000000a0       0x20 build/default/debug/_ext/60167341/plib_eic.o
 .debug_aranges
                0x000000c0       0x20 build/default/debug/_ext/1986646378/plib_evsys.o
 .debug_aranges
                0x000000e0       0x20 build/default/debug/_ext/1865468468/plib_nvic.o
 .debug_aranges
                0x00000100       0x20 build/default/debug/_ext/1593096446/plib_nvmctrl.o
 .debug_aranges
                0x00000120       0x20 build/default/debug/_ext/1865510628/plib_pdec.o
 .debug_aranges
                0x00000140       0x20 build/default/debug/_ext/1865521619/plib_port.o
 .debug_aranges
                0x00000160       0x20 build/default/debug/_ext/504274921/plib_sercom2_usart.o
 .debug_aranges
                0x00000180       0x20 build/default/debug/_ext/60181570/plib_tcc0.o
 .debug_aranges
                0x000001a0       0x20 build/default/debug/_ext/163028504/xc32_monitor.o
 .debug_aranges
                0x000001c0       0x18 build/default/debug/_ext/1455229975/Atan_Data.o
 .debug_aranges
                0x000001d8       0x20 build/default/debug/_ext/1455229975/CommonFcts.o
 .debug_aranges
                0x000001f8       0x18 build/default/debug/_ext/1455229975/Exp_Data.o
 .debug_aranges
                0x00000210       0x18 build/default/debug/_ext/1455229975/Sin2_Data.o
 .debug_aranges
                0x00000228       0x18 build/default/debug/_ext/1455229975/Sin_Data.o
 .debug_aranges
                0x00000240       0x18 build/default/debug/_ext/1455229975/Sqrt_Data.o
 .debug_aranges
                0x00000258       0x20 build/default/debug/_ext/1455229975/TableStruct.o
 .debug_aranges
                0x00000278       0x20 build/default/debug/_ext/309582698/CRC8CCITT.o
 .debug_aranges
                0x00000298       0x20 build/default/debug/_ext/2032521757/SerialGeneric.o
 .debug_aranges
                0x000002b8       0x20 build/default/debug/_ext/1371241226/LNet.o
 .debug_aranges
                0x000002d8       0x20 build/default/debug/_ext/630304036/BlockServices.o
 .debug_aranges
                0x000002f8       0x20 build/default/debug/_ext/630304036/Services.o
 .debug_aranges
                0x00000318       0x20 build/default/debug/_ext/546984198/CommunicationUart.o
 .debug_aranges
                0x00000338       0x20 build/default/debug/_ext/546984198/ConfigX2C.o
 .debug_aranges
                0x00000358       0x18 build/default/debug/_ext/546984198/FlashTable.o
 .debug_aranges
                0x00000370       0x20 build/default/debug/_ext/546984198/PortConfigX2C.o
 .debug_aranges
                0x00000390       0x20 build/default/debug/_ext/546984198/RamTable.o
 .debug_aranges
                0x000003b0       0x20 build/default/debug/_ext/546984198/Scope_Main.o
 .debug_aranges
                0x000003d0       0x20 build/default/debug/_ext/546984198/X2C.o
 .debug_aranges
                0x000003f0       0x28 build/default/debug/_ext/1171490990/startup_xc32.o
 .debug_aranges
                0x00000418       0x20 build/default/debug/_ext/1171490990/initialization.o
 .debug_aranges
                0x00000438       0x20 build/default/debug/_ext/1171490990/interrupts.o
 .debug_aranges
                0x00000458       0x20 build/default/debug/_ext/1171490990/exceptions.o
 .debug_aranges
                0x00000478       0x20 build/default/debug/_ext/1171490990/libc_syscalls.o
 .debug_aranges
                0x00000498       0x20 build/default/debug/_ext/1360937237/main.o
 .debug_aranges
                0x000004b8       0x28 c:/program files/microchip/xc32/v4.35/bin/bin/../../lib/gcc/pic32c/8.3.1/../../../../pic32c/lib/thumb/v7e-m+fp/hard\libpic32c.a(data_init.o)
 .debug_aranges
                0x000004e0       0x28 c:/program files/microchip/xc32/v4.35/bin/bin/../../lib/gcc/pic32c/8.3.1/../../../../pic32c/lib/thumb/v7e-m+fp/hard\libg-musl.a(__libc_start_main.o)
 .debug_aranges
                0x00000508       0x18 c:/program files/microchip/xc32/v4.35/bin/bin/../../lib/gcc/pic32c/8.3.1/../../../../pic32c/lib/thumb/v7e-m+fp/hard\libg-musl.a(libc.o)
 .debug_aranges
                0x00000520       0x20 c:/program files/microchip/xc32/v4.35/bin/bin/../../lib/gcc/pic32c/8.3.1/../../../../pic32c/lib/thumb/v7e-m+fp/hard\libg-musl.a(memcpy.o)
 .debug_aranges
                0x00000540       0x18 c:/program files/microchip/xc32/v4.35/bin/bin/../../lib/gcc/pic32c/8.3.1/../../../../pic32c/lib/thumb/v7e-m+fp/hard\libg-musl.a(__environ.o)
 .debug_aranges
                0x00000558       0x20 c:/program files/microchip/xc32/v4.35/bin/bin/../../lib/gcc/pic32c/8.3.1/thumb/v7e-m+fp/hard\libgcc.a(_aeabi_ldivmod.o)
 .debug_aranges
                0x00000578       0x20 c:/program files/microchip/xc32/v4.35/bin/bin/../../lib/gcc/pic32c/8.3.1/thumb/v7e-m+fp/hard\libgcc.a(_aeabi_uldivmod.o)
 .debug_aranges
                0x00000598       0x20 c:/program files/microchip/xc32/v4.35/bin/bin/../../lib/gcc/pic32c/8.3.1/thumb/v7e-m+fp/hard\libgcc.a(_udivmoddi4.o)
 .debug_aranges
                0x000005b8       0x20 c:/program files/microchip/xc32/v4.35/bin/bin/../../lib/gcc/pic32c/8.3.1/thumb/v7e-m+fp/hard\libgcc.a(_dvmd_tls.o)
 .debug_aranges
                0x000005d8       0x20 c:/program files/microchip/xc32/v4.35/bin/bin/../../lib/gcc/pic32c/8.3.1/../../../../pic32c/lib/thumb/v7e-m+fp/hard\libpic32c.a(pic32_data_init_clear.o)
 .debug_aranges
                0x000005f8       0x20 c:/program files/microchip/xc32/v4.35/bin/bin/../../lib/gcc/pic32c/8.3.1/../../../../pic32c/lib/thumb/v7e-m+fp/hard\libpic32c.a(pic32_data_init_copy.o)

.debug_line     0x00000000     0x9ccd
 .debug_line    0x00000000       0x53 build/default/debug/_ext/1434821282/bsp.o
 .debug_line    0x00000053      0x2de build/default/debug/_ext/60163342/plib_adc0.o
 .debug_line    0x00000331      0x29d build/default/debug/_ext/60163342/plib_adc1.o
 .debug_line    0x000005ce      0x347 build/default/debug/_ext/1984496892/plib_clock.o
 .debug_line    0x00000915      0x1d0 build/default/debug/_ext/1865131932/plib_cmcc.o
 .debug_line    0x00000ae5      0x126 build/default/debug/_ext/60167341/plib_eic.o
 .debug_line    0x00000c0b      0x179 build/default/debug/_ext/1986646378/plib_evsys.o
 .debug_line    0x00000d84      0x2e9 build/default/debug/_ext/1865468468/plib_nvic.o
 .debug_line    0x0000106d      0x569 build/default/debug/_ext/1593096446/plib_nvmctrl.o
 .debug_line    0x000015d6      0x21e build/default/debug/_ext/1865510628/plib_pdec.o
 .debug_line    0x000017f4      0x326 build/default/debug/_ext/1865521619/plib_port.o
 .debug_line    0x00001b1a      0x564 build/default/debug/_ext/504274921/plib_sercom2_usart.o
 .debug_line    0x0000207e      0x347 build/default/debug/_ext/60181570/plib_tcc0.o
 .debug_line    0x000023c5       0xb1 build/default/debug/_ext/163028504/xc32_monitor.o
 .debug_line    0x00002476       0xcd build/default/debug/_ext/1455229975/Atan_Data.o
 .debug_line    0x00002543      0x767 build/default/debug/_ext/1455229975/CommonFcts.o
 .debug_line    0x00002caa       0xcb build/default/debug/_ext/1455229975/Exp_Data.o
 .debug_line    0x00002d75       0xcd build/default/debug/_ext/1455229975/Sin2_Data.o
 .debug_line    0x00002e42       0xcb build/default/debug/_ext/1455229975/Sin_Data.o
 .debug_line    0x00002f0d       0xcd build/default/debug/_ext/1455229975/Sqrt_Data.o
 .debug_line    0x00002fda      0x19e build/default/debug/_ext/1455229975/TableStruct.o
 .debug_line    0x00003178      0x17f build/default/debug/_ext/309582698/CRC8CCITT.o
 .debug_line    0x000032f7      0x188 build/default/debug/_ext/2032521757/SerialGeneric.o
 .debug_line    0x0000347f      0xb0c build/default/debug/_ext/1371241226/LNet.o
 .debug_line    0x00003f8b      0x669 build/default/debug/_ext/630304036/BlockServices.o
 .debug_line    0x000045f4      0xec0 build/default/debug/_ext/630304036/Services.o
 .debug_line    0x000054b4      0x242 build/default/debug/_ext/546984198/CommunicationUart.o
 .debug_line    0x000056f6      0x295 build/default/debug/_ext/546984198/ConfigX2C.o
 .debug_line    0x0000598b       0xf6 build/default/debug/_ext/546984198/FlashTable.o
 .debug_line    0x00005a81      0x99f build/default/debug/_ext/546984198/PortConfigX2C.o
 .debug_line    0x00006420      0x11b build/default/debug/_ext/546984198/RamTable.o
 .debug_line    0x0000653b      0xf9b build/default/debug/_ext/546984198/Scope_Main.o
 .debug_line    0x000074d6     0x1154 build/default/debug/_ext/546984198/X2C.o
 .debug_line    0x0000862a      0x24a build/default/debug/_ext/1171490990/startup_xc32.o
 .debug_line    0x00008874      0x30e build/default/debug/_ext/1171490990/initialization.o
 .debug_line    0x00008b82      0x102 build/default/debug/_ext/1171490990/interrupts.o
 .debug_line    0x00008c84       0x5b build/default/debug/_ext/1171490990/exceptions.o
 .debug_line    0x00008cdf       0x5e build/default/debug/_ext/1171490990/libc_syscalls.o
 .debug_line    0x00008d3d      0x36b build/default/debug/_ext/1360937237/main.o
 .debug_line    0x000090a8       0xec c:/program files/microchip/xc32/v4.35/bin/bin/../../lib/gcc/pic32c/8.3.1/../../../../pic32c/lib/thumb/v7e-m+fp/hard\libpic32c.a(data_init.o)
 .debug_line    0x00009194      0x1cd c:/program files/microchip/xc32/v4.35/bin/bin/../../lib/gcc/pic32c/8.3.1/../../../../pic32c/lib/thumb/v7e-m+fp/hard\libg-musl.a(__libc_start_main.o)
 .debug_line    0x00009361       0xb8 c:/program files/microchip/xc32/v4.35/bin/bin/../../lib/gcc/pic32c/8.3.1/../../../../pic32c/lib/thumb/v7e-m+fp/hard\libg-musl.a(libc.o)
 .debug_line    0x00009419       0xfc c:/program files/microchip/xc32/v4.35/bin/bin/../../lib/gcc/pic32c/8.3.1/../../../../pic32c/lib/thumb/v7e-m+fp/hard\libg-musl.a(memcpy.o)
 .debug_line    0x00009515      0x101 c:/program files/microchip/xc32/v4.35/bin/bin/../../lib/gcc/pic32c/8.3.1/../../../../pic32c/lib/thumb/v7e-m+fp/hard\libg-musl.a(__environ.o)
 .debug_line    0x00009616       0xb2 c:/program files/microchip/xc32/v4.35/bin/bin/../../lib/gcc/pic32c/8.3.1/thumb/v7e-m+fp/hard\libgcc.a(_aeabi_ldivmod.o)
 .debug_line    0x000096c8       0x94 c:/program files/microchip/xc32/v4.35/bin/bin/../../lib/gcc/pic32c/8.3.1/thumb/v7e-m+fp/hard\libgcc.a(_aeabi_uldivmod.o)
 .debug_line    0x0000975c      0x363 c:/program files/microchip/xc32/v4.35/bin/bin/../../lib/gcc/pic32c/8.3.1/thumb/v7e-m+fp/hard\libgcc.a(_udivmoddi4.o)
 .debug_line    0x00009abf       0x94 c:/program files/microchip/xc32/v4.35/bin/bin/../../lib/gcc/pic32c/8.3.1/thumb/v7e-m+fp/hard\libgcc.a(_dvmd_tls.o)
 .debug_line    0x00009b53       0xb9 c:/program files/microchip/xc32/v4.35/bin/bin/../../lib/gcc/pic32c/8.3.1/../../../../pic32c/lib/thumb/v7e-m+fp/hard\libpic32c.a(pic32_data_init_clear.o)
 .debug_line    0x00009c0c       0xc1 c:/program files/microchip/xc32/v4.35/bin/bin/../../lib/gcc/pic32c/8.3.1/../../../../pic32c/lib/thumb/v7e-m+fp/hard\libpic32c.a(pic32_data_init_copy.o)

.debug_str      0x00000000     0x14ef
 .debug_str     0x00000000        0x0 build/default/debug/_ext/1434821282/bsp.o
 .debug_str     0x00000000       0x2a build/default/debug/_ext/60163342/plib_adc0.o
 .debug_str     0x0000002a       0x19 build/default/debug/_ext/60163342/plib_adc1.o
 .debug_str     0x00000043       0x1e build/default/debug/_ext/1984496892/plib_clock.o
 .debug_str     0x00000061        0x0 build/default/debug/_ext/1865131932/plib_cmcc.o
 .debug_str     0x00000061        0x0 build/default/debug/_ext/60167341/plib_eic.o
 .debug_str     0x00000061       0x16 build/default/debug/_ext/1986646378/plib_evsys.o
 .debug_str     0x00000077        0xa build/default/debug/_ext/1865468468/plib_nvic.o
 .debug_str     0x00000081       0x20 build/default/debug/_ext/1593096446/plib_nvmctrl.o
 .debug_str     0x000000a1        0x0 build/default/debug/_ext/1865510628/plib_pdec.o
 .debug_str     0x000000a1        0xb build/default/debug/_ext/1865521619/plib_port.o
 .debug_str     0x000000ac      0x135 build/default/debug/_ext/504274921/plib_sercom2_usart.o
 .debug_str     0x000001e1        0xf build/default/debug/_ext/60181570/plib_tcc0.o
 .debug_str     0x000001f0        0x0 build/default/debug/_ext/163028504/xc32_monitor.o
 .debug_str     0x000001f0        0x0 build/default/debug/_ext/1455229975/Atan_Data.o
 .debug_str     0x000001f0       0xbc build/default/debug/_ext/1455229975/CommonFcts.o
 .debug_str     0x000002ac        0x0 build/default/debug/_ext/1455229975/Exp_Data.o
 .debug_str     0x000002ac        0x0 build/default/debug/_ext/1455229975/Sin2_Data.o
 .debug_str     0x000002ac        0x0 build/default/debug/_ext/1455229975/Sin_Data.o
 .debug_str     0x000002ac        0x0 build/default/debug/_ext/1455229975/Sqrt_Data.o
 .debug_str     0x000002ac       0x46 build/default/debug/_ext/1455229975/TableStruct.o
 .debug_str     0x000002f2        0x0 build/default/debug/_ext/309582698/CRC8CCITT.o
 .debug_str     0x000002f2       0x4e build/default/debug/_ext/2032521757/SerialGeneric.o
 .debug_str     0x00000340       0xcc build/default/debug/_ext/1371241226/LNet.o
 .debug_str     0x0000040c       0x72 build/default/debug/_ext/630304036/BlockServices.o
 .debug_str     0x0000047e       0xdf build/default/debug/_ext/630304036/Services.o
 .debug_str     0x0000055d       0xb3 build/default/debug/_ext/546984198/CommunicationUart.o
 .debug_str     0x00000610      0x137 build/default/debug/_ext/546984198/ConfigX2C.o
 .debug_str     0x00000747        0x0 build/default/debug/_ext/546984198/FlashTable.o
 .debug_str     0x00000747      0x142 build/default/debug/_ext/546984198/PortConfigX2C.o
 .debug_str     0x00000889        0x0 build/default/debug/_ext/546984198/RamTable.o
 .debug_str     0x00000889       0xf7 build/default/debug/_ext/546984198/Scope_Main.o
 .debug_str     0x00000980      0x6c7 build/default/debug/_ext/546984198/X2C.o
 .debug_str     0x00001047       0x2f build/default/debug/_ext/1171490990/startup_xc32.o
 .debug_str     0x00001076       0xe2 build/default/debug/_ext/1171490990/initialization.o
 .debug_str     0x00001158        0x0 build/default/debug/_ext/1171490990/interrupts.o
 .debug_str     0x00001158        0x0 build/default/debug/_ext/1171490990/exceptions.o
 .debug_str     0x00001158        0x0 build/default/debug/_ext/1171490990/libc_syscalls.o
 .debug_str     0x00001158       0xdb build/default/debug/_ext/1360937237/main.o
 .debug_str     0x00001233        0x0 c:/program files/microchip/xc32/v4.35/bin/bin/../../lib/gcc/pic32c/8.3.1/../../../../pic32c/lib/thumb/v7e-m+fp/hard\libpic32c.a(data_init.o)
 .debug_str     0x00001233        0x0 c:/program files/microchip/xc32/v4.35/bin/bin/../../lib/gcc/pic32c/8.3.1/../../../../pic32c/lib/thumb/v7e-m+fp/hard\libg-musl.a(__libc_start_main.o)
 .debug_str     0x00001233        0x0 c:/program files/microchip/xc32/v4.35/bin/bin/../../lib/gcc/pic32c/8.3.1/../../../../pic32c/lib/thumb/v7e-m+fp/hard\libg-musl.a(libc.o)
 .debug_str     0x00001233        0x0 c:/program files/microchip/xc32/v4.35/bin/bin/../../lib/gcc/pic32c/8.3.1/../../../../pic32c/lib/thumb/v7e-m+fp/hard\libg-musl.a(memcpy.o)
 .debug_str     0x00001233        0x0 c:/program files/microchip/xc32/v4.35/bin/bin/../../lib/gcc/pic32c/8.3.1/../../../../pic32c/lib/thumb/v7e-m+fp/hard\libg-musl.a(__environ.o)
 .debug_str     0x00001233       0xe8 c:/program files/microchip/xc32/v4.35/bin/bin/../../lib/gcc/pic32c/8.3.1/thumb/v7e-m+fp/hard\libgcc.a(_aeabi_ldivmod.o)
 .debug_str     0x0000131b       0xe8 c:/program files/microchip/xc32/v4.35/bin/bin/../../lib/gcc/pic32c/8.3.1/thumb/v7e-m+fp/hard\libgcc.a(_aeabi_uldivmod.o)
 .debug_str     0x00001403        0x0 c:/program files/microchip/xc32/v4.35/bin/bin/../../lib/gcc/pic32c/8.3.1/thumb/v7e-m+fp/hard\libgcc.a(_udivmoddi4.o)
 .debug_str     0x00001403       0xec c:/program files/microchip/xc32/v4.35/bin/bin/../../lib/gcc/pic32c/8.3.1/thumb/v7e-m+fp/hard\libgcc.a(_dvmd_tls.o)
 .debug_str     0x000014ef        0x0 c:/program files/microchip/xc32/v4.35/bin/bin/../../lib/gcc/pic32c/8.3.1/../../../../pic32c/lib/thumb/v7e-m+fp/hard\libpic32c.a(pic32_data_init_clear.o)
 .debug_str     0x000014ef        0x0 c:/program files/microchip/xc32/v4.35/bin/bin/../../lib/gcc/pic32c/8.3.1/../../../../pic32c/lib/thumb/v7e-m+fp/hard\libpic32c.a(pic32_data_init_copy.o)

.debug_frame    0x00000000     0x172c
 .debug_frame   0x00000000       0x20 build/default/debug/_ext/1434821282/bsp.o
 .debug_frame   0x00000020      0x108 build/default/debug/_ext/60163342/plib_adc0.o
 .debug_frame   0x00000128      0x100 build/default/debug/_ext/60163342/plib_adc1.o
 .debug_frame   0x00000228       0x30 build/default/debug/_ext/1984496892/plib_clock.o
 .debug_frame   0x00000258       0x70 build/default/debug/_ext/1865131932/plib_cmcc.o
 .debug_frame   0x000002c8       0x20 build/default/debug/_ext/60167341/plib_eic.o
 .debug_frame   0x000002e8       0x6c build/default/debug/_ext/1986646378/plib_evsys.o
 .debug_frame   0x00000354       0x50 build/default/debug/_ext/1865468468/plib_nvic.o
 .debug_frame   0x000003a4      0x204 build/default/debug/_ext/1593096446/plib_nvmctrl.o
 .debug_frame   0x000005a8       0x8c build/default/debug/_ext/1865510628/plib_pdec.o
 .debug_frame   0x00000634       0xdc build/default/debug/_ext/1865521619/plib_port.o
 .debug_frame   0x00000710      0x18c build/default/debug/_ext/504274921/plib_sercom2_usart.o
 .debug_frame   0x0000089c      0x10c build/default/debug/_ext/60181570/plib_tcc0.o
 .debug_frame   0x000009a8       0x30 build/default/debug/_ext/163028504/xc32_monitor.o
 .debug_frame   0x000009d8      0x2a8 build/default/debug/_ext/1455229975/CommonFcts.o
 .debug_frame   0x00000c80       0x30 build/default/debug/_ext/1455229975/TableStruct.o
 .debug_frame   0x00000cb0       0x4c build/default/debug/_ext/309582698/CRC8CCITT.o
 .debug_frame   0x00000cfc       0x9c build/default/debug/_ext/2032521757/SerialGeneric.o
 .debug_frame   0x00000d98       0xa8 build/default/debug/_ext/1371241226/LNet.o
 .debug_frame   0x00000e40      0x12c build/default/debug/_ext/630304036/BlockServices.o
 .debug_frame   0x00000f6c      0x1b4 build/default/debug/_ext/630304036/Services.o
 .debug_frame   0x00001120       0xbc build/default/debug/_ext/546984198/CommunicationUart.o
 .debug_frame   0x000011dc       0x60 build/default/debug/_ext/546984198/ConfigX2C.o
 .debug_frame   0x0000123c       0x68 build/default/debug/_ext/546984198/PortConfigX2C.o
 .debug_frame   0x000012a4       0x20 build/default/debug/_ext/546984198/RamTable.o
 .debug_frame   0x000012c4       0xc0 build/default/debug/_ext/546984198/Scope_Main.o
 .debug_frame   0x00001384       0xa0 build/default/debug/_ext/546984198/X2C.o
 .debug_frame   0x00001424       0x38 build/default/debug/_ext/1171490990/startup_xc32.o
 .debug_frame   0x0000145c       0x2c build/default/debug/_ext/1171490990/initialization.o
 .debug_frame   0x00001488       0x20 build/default/debug/_ext/1171490990/interrupts.o
 .debug_frame   0x000014a8       0x70 build/default/debug/_ext/1171490990/exceptions.o
 .debug_frame   0x00001518       0x20 build/default/debug/_ext/1171490990/libc_syscalls.o
 .debug_frame   0x00001538       0x60 build/default/debug/_ext/1360937237/main.o
 .debug_frame   0x00001598       0x3c c:/program files/microchip/xc32/v4.35/bin/bin/../../lib/gcc/pic32c/8.3.1/../../../../pic32c/lib/thumb/v7e-m+fp/hard\libpic32c.a(data_init.o)
 .debug_frame   0x000015d4       0x3c c:/program files/microchip/xc32/v4.35/bin/bin/../../lib/gcc/pic32c/8.3.1/../../../../pic32c/lib/thumb/v7e-m+fp/hard\libg-musl.a(__libc_start_main.o)
 .debug_frame   0x00001610       0x2c c:/program files/microchip/xc32/v4.35/bin/bin/../../lib/gcc/pic32c/8.3.1/../../../../pic32c/lib/thumb/v7e-m+fp/hard\libg-musl.a(memcpy.o)
 .debug_frame   0x0000163c       0x44 c:/program files/microchip/xc32/v4.35/bin/bin/../../lib/gcc/pic32c/8.3.1/thumb/v7e-m+fp/hard\libgcc.a(_aeabi_ldivmod.o)
 .debug_frame   0x00001680       0x2c c:/program files/microchip/xc32/v4.35/bin/bin/../../lib/gcc/pic32c/8.3.1/thumb/v7e-m+fp/hard\libgcc.a(_aeabi_uldivmod.o)
 .debug_frame   0x000016ac       0x38 c:/program files/microchip/xc32/v4.35/bin/bin/../../lib/gcc/pic32c/8.3.1/thumb/v7e-m+fp/hard\libgcc.a(_udivmoddi4.o)
 .debug_frame   0x000016e4       0x20 c:/program files/microchip/xc32/v4.35/bin/bin/../../lib/gcc/pic32c/8.3.1/../../../../pic32c/lib/thumb/v7e-m+fp/hard\libpic32c.a(pic32_data_init_clear.o)
 .debug_frame   0x00001704       0x28 c:/program files/microchip/xc32/v4.35/bin/bin/../../lib/gcc/pic32c/8.3.1/../../../../pic32c/lib/thumb/v7e-m+fp/hard\libpic32c.a(pic32_data_init_copy.o)

.debug_loc      0x00000000     0x85e4
 .debug_loc     0x00000000      0x116 build/default/debug/_ext/60163342/plib_adc0.o
 .debug_loc     0x00000116       0xf0 build/default/debug/_ext/60163342/plib_adc1.o
 .debug_loc     0x00000206       0x2c build/default/debug/_ext/1984496892/plib_clock.o
 .debug_loc     0x00000232      0x10a build/default/debug/_ext/1986646378/plib_evsys.o
 .debug_loc     0x0000033c      0x11c build/default/debug/_ext/1865468468/plib_nvic.o
 .debug_loc     0x00000458      0x97d build/default/debug/_ext/1593096446/plib_nvmctrl.o
 .debug_loc     0x00000dd5       0x41 build/default/debug/_ext/1865510628/plib_pdec.o
 .debug_loc     0x00000e16      0x219 build/default/debug/_ext/1865521619/plib_port.o
 .debug_loc     0x0000102f      0xa12 build/default/debug/_ext/504274921/plib_sercom2_usart.o
 .debug_loc     0x00001a41      0x1b6 build/default/debug/_ext/60181570/plib_tcc0.o
 .debug_loc     0x00001bf7       0x25 build/default/debug/_ext/163028504/xc32_monitor.o
 .debug_loc     0x00001c1c     0x12cd build/default/debug/_ext/1455229975/CommonFcts.o
 .debug_loc     0x00002ee9       0x32 build/default/debug/_ext/1455229975/TableStruct.o
 .debug_loc     0x00002f1b      0x180 build/default/debug/_ext/309582698/CRC8CCITT.o
 .debug_loc     0x0000309b       0x51 build/default/debug/_ext/2032521757/SerialGeneric.o
 .debug_loc     0x000030ec      0xbce build/default/debug/_ext/1371241226/LNet.o
 .debug_loc     0x00003cba      0xbea build/default/debug/_ext/630304036/BlockServices.o
 .debug_loc     0x000048a4     0x116d build/default/debug/_ext/630304036/Services.o
 .debug_loc     0x00005a11      0x1bd build/default/debug/_ext/546984198/CommunicationUart.o
 .debug_loc     0x00005bce       0x83 build/default/debug/_ext/546984198/ConfigX2C.o
 .debug_loc     0x00005c51      0x127 build/default/debug/_ext/546984198/PortConfigX2C.o
 .debug_loc     0x00005d78       0x16 build/default/debug/_ext/546984198/RamTable.o
 .debug_loc     0x00005d8e     0x165a build/default/debug/_ext/546984198/Scope_Main.o
 .debug_loc     0x000073e8       0x98 build/default/debug/_ext/546984198/X2C.o
 .debug_loc     0x00007480       0x4a build/default/debug/_ext/1171490990/startup_xc32.o
 .debug_loc     0x000074ca       0x51 build/default/debug/_ext/1171490990/initialization.o
 .debug_loc     0x0000751b       0xcc build/default/debug/_ext/1360937237/main.o
 .debug_loc     0x000075e7       0x14 c:/program files/microchip/xc32/v4.35/bin/bin/../../lib/gcc/pic32c/8.3.1/../../../../pic32c/lib/thumb/v7e-m+fp/hard\libpic32c.a(data_init.o)
 .debug_loc     0x000075fb       0x51 c:/program files/microchip/xc32/v4.35/bin/bin/../../lib/gcc/pic32c/8.3.1/../../../../pic32c/lib/thumb/v7e-m+fp/hard\libg-musl.a(__libc_start_main.o)
 .debug_loc     0x0000764c      0x10b c:/program files/microchip/xc32/v4.35/bin/bin/../../lib/gcc/pic32c/8.3.1/../../../../pic32c/lib/thumb/v7e-m+fp/hard\libg-musl.a(memcpy.o)
 .debug_loc     0x00007757      0xe79 c:/program files/microchip/xc32/v4.35/bin/bin/../../lib/gcc/pic32c/8.3.1/thumb/v7e-m+fp/hard\libgcc.a(_udivmoddi4.o)
 .debug_loc     0x000085d0       0x14 c:/program files/microchip/xc32/v4.35/bin/bin/../../lib/gcc/pic32c/8.3.1/../../../../pic32c/lib/thumb/v7e-m+fp/hard\libpic32c.a(pic32_data_init_copy.o)

.debug_ranges   0x00000000      0x948
 .debug_ranges  0x00000000       0x38 build/default/debug/_ext/1984496892/plib_clock.o
 .debug_ranges  0x00000038       0x30 build/default/debug/_ext/1865468468/plib_nvic.o
 .debug_ranges  0x00000068       0x68 build/default/debug/_ext/1593096446/plib_nvmctrl.o
 .debug_ranges  0x000000d0       0x20 build/default/debug/_ext/504274921/plib_sercom2_usart.o
 .debug_ranges  0x000000f0      0x3f8 build/default/debug/_ext/1371241226/LNet.o
 .debug_ranges  0x000004e8       0xb8 build/default/debug/_ext/630304036/Services.o
 .debug_ranges  0x000005a0       0x18 build/default/debug/_ext/546984198/ConfigX2C.o
 .debug_ranges  0x000005b8      0x240 build/default/debug/_ext/546984198/Scope_Main.o
 .debug_ranges  0x000007f8       0x18 build/default/debug/_ext/1171490990/startup_xc32.o
 .debug_ranges  0x00000810       0x18 c:/program files/microchip/xc32/v4.35/bin/bin/../../lib/gcc/pic32c/8.3.1/../../../../pic32c/lib/thumb/v7e-m+fp/hard\libpic32c.a(data_init.o)
 .debug_ranges  0x00000828       0x40 c:/program files/microchip/xc32/v4.35/bin/bin/../../lib/gcc/pic32c/8.3.1/../../../../pic32c/lib/thumb/v7e-m+fp/hard\libg-musl.a(__libc_start_main.o)
 .debug_ranges  0x00000868       0x10 c:/program files/microchip/xc32/v4.35/bin/bin/../../lib/gcc/pic32c/8.3.1/../../../../pic32c/lib/thumb/v7e-m+fp/hard\libg-musl.a(memcpy.o)
 .debug_ranges  0x00000878       0xb0 c:/program files/microchip/xc32/v4.35/bin/bin/../../lib/gcc/pic32c/8.3.1/thumb/v7e-m+fp/hard\libgcc.a(_udivmoddi4.o)
 .debug_ranges  0x00000928       0x10 c:/program files/microchip/xc32/v4.35/bin/bin/../../lib/gcc/pic32c/8.3.1/../../../../pic32c/lib/thumb/v7e-m+fp/hard\libpic32c.a(pic32_data_init_clear.o)
 .debug_ranges  0x00000938       0x10 c:/program files/microchip/xc32/v4.35/bin/bin/../../lib/gcc/pic32c/8.3.1/../../../../pic32c/lib/thumb/v7e-m+fp/hard\libpic32c.a(pic32_data_init_copy.o)

.note.GNU-stack
                0x00000000        0x0
 .note.GNU-stack
                0x00000000        0x0 c:/program files/microchip/xc32/v4.35/bin/bin/../../lib/gcc/pic32c/8.3.1/../../../../pic32c/lib/thumb/v7e-m+fp/hard\libg-musl.a(__libc_start_main.o)
 .note.GNU-stack
                0x00000000        0x0 c:/program files/microchip/xc32/v4.35/bin/bin/../../lib/gcc/pic32c/8.3.1/../../../../pic32c/lib/thumb/v7e-m+fp/hard\libg-musl.a(libc.o)
 .note.GNU-stack
                0x00000000        0x0 c:/program files/microchip/xc32/v4.35/bin/bin/../../lib/gcc/pic32c/8.3.1/../../../../pic32c/lib/thumb/v7e-m+fp/hard\libg-musl.a(memcpy.o)
 .note.GNU-stack
                0x00000000        0x0 c:/program files/microchip/xc32/v4.35/bin/bin/../../lib/gcc/pic32c/8.3.1/../../../../pic32c/lib/thumb/v7e-m+fp/hard\libg-musl.a(__environ.o)

.stack          0x20002120      0x100
 .stack         0x20002120      0x100 stack

.bss%1          0x20000000     0x1000
 .bss           0x20000000     0x1000 build/default/debug/_ext/546984198/Scope_Main.o
                0x20000000                ScopeArray

.bss%2          0x20001000      0x810
 .bss           0x20001000      0x810 build/default/debug/_ext/546984198/X2C.o
                0x20001000                x2cModel
                0x20001798                x2cScope

.bss%3          0x20001810      0x406
 .bss           0x20001810      0x406 build/default/debug/_ext/546984198/RamTable.o
                0x20001810                RamTable_int16

.bss%4          0x20001c18      0x188
 .bss           0x20001c18      0x188 build/default/debug/_ext/546984198/ConfigX2C.o
                0x20001d64                TheTableStruct

.bss%5          0x20001da0       0x6c
 .bss           0x20001da0       0x6c build/default/debug/_ext/630304036/Services.o

.bss%6          0x20001e0c       0x50
 .bss           0x20001e0c       0x50 c:/program files/microchip/xc32/v4.35/bin/bin/../../lib/gcc/pic32c/8.3.1/../../../../pic32c/lib/thumb/v7e-m+fp/hard\libg-musl.a(libc.o)
                0x20001e0c                __progname_full
                0x20001e0c                program_invocation_name
                0x20001e10                program_invocation_short_name
                0x20001e10                __progname
                0x20001e14                __sysinfo
                0x20001e18                __hwcap
                0x20001e1c                __libc

.bss%7          0x20001e5c       0x31
 .bss           0x20001e5c       0x31 build/default/debug/_ext/546984198/PortConfigX2C.o
                0x20001e5e                rotor_elec_count
                0x20001e60                rotor_mech_count
                0x20001e62                rotor_speed_count
                0x20001e64                gPositionCalc
                0x20001e78                pos_count_diff
                0x20001e7c                speed_elec
                0x20001e80                duty_A
                0x20001e84                duty_B
                0x20001e88                duty_C
                0x20001e8c                adcCalibrated

.bss%8          0x20001e90       0x28
 .bss           0x20001e90       0x28 build/default/debug/_ext/1360937237/main.o
                0x20001e90                phaseA_current_raw
                0x20001e92                phaseB_current_raw
                0x20001e94                dcbus_raw
                0x20001e96                pot_raw
                0x20001e98                slow_loop_count
                0x20001e9a                TimerEncoderFilter
                0x20001e9c                calibration_sample_count
                0x20001ea0                adc_0_sum
                0x20001ea4                adc_1_sum
                0x20001ea8                adc_0_offset
                0x20001eaa                adc_1_offset
                0x20001eac                CpuLoad
                0x20001eae                updateCnt
                0x20001eb0                dc_bus
                0x20001eb2                pot_value
                0x20001eb4                current_ib
                0x20001eb6                current_ia

.bss%9          0x20001eb8       0x1c
 .bss           0x20001eb8       0x1c c:/program files/microchip/xc32/v4.35/bin/bin/../../lib/gcc/pic32c/8.3.1/thumb/v7e-m+fp/hard/crtbegin.o

.bss%10         0x20001ed4        0x8
 .bss           0x20001ed4        0x8 build/default/debug/_ext/60163342/plib_adc0.o

.bss%11         0x20001edc        0x8
 .bss           0x20001edc        0x8 build/default/debug/_ext/60181570/plib_tcc0.o

.bss%12         0x20001ee4        0x8
 .bss           0x20001ee4        0x8 build/default/debug/_ext/1371241226/LNet.o

.bss%13         0x20001eec        0x4
 .bss           0x20001eec        0x4 c:/program files/microchip/xc32/v4.35/bin/bin/../../lib/gcc/pic32c/8.3.1/../../../../pic32c/lib/thumb/v7e-m+fp/hard\libpic32c.a(data_init.o)

.bss%14         0x20001ef0        0x4
 .bss           0x20001ef0        0x4 c:/program files/microchip/xc32/v4.35/bin/bin/../../lib/gcc/pic32c/8.3.1/../../../../pic32c/lib/thumb/v7e-m+fp/hard\libg-musl.a(__environ.o)
                0x20001ef0                __environ
                0x20001ef0                environ
                0x20001ef0                ___environ
                0x20001ef0                _environ

.bss%15         0x20001c16        0x2
 .bss           0x20001c16        0x2 build/default/debug/_ext/1593096446/plib_nvmctrl.o

.bss%16         0x20001e8d        0x2
 .bss           0x20001e8d        0x2 build/default/debug/_ext/309582698/CRC8CCITT.o
                0x20001e8d                xored
                0x20001e8e                newcrc

.bss%z1         0x00000000        0x0
 .bss           0x00000000        0x0 c:/program files/microchip/xc32/v4.35/bin/bin/../../lib/gcc/pic32c/8.3.1/../../../../pic32c/lib/thumb/v7e-m+fp/hard\libpic32c.a(pic32_data_init_copy.o)

.bss%z2         0x00000000        0x0
 .bss           0x00000000        0x0 c:/program files/microchip/xc32/v4.35/bin/bin/../../lib/gcc/pic32c/8.3.1/../../../../pic32c/lib/thumb/v7e-m+fp/hard\libpic32c.a(pic32_data_init_clear.o)

.bss%z3         0x00000000        0x0
 .bss           0x00000000        0x0 c:/program files/microchip/xc32/v4.35/bin/bin/../../lib/gcc/pic32c/8.3.1/thumb/v7e-m+fp/hard/crtn.o

.bss%z4         0x00000000        0x0
 .bss           0x00000000        0x0 c:/program files/microchip/xc32/v4.35/bin/bin/../../lib/gcc/pic32c/8.3.1/thumb/v7e-m+fp/hard/crtend.o

.bss%z5         0x00000000        0x0
 .bss           0x00000000        0x0 c:/program files/microchip/xc32/v4.35/bin/bin/../../lib/gcc/pic32c/8.3.1/thumb/v7e-m+fp/hard\libgcc.a(_dvmd_tls.o)

.bss%z6         0x00000000        0x0
 .bss           0x00000000        0x0 c:/program files/microchip/xc32/v4.35/bin/bin/../../lib/gcc/pic32c/8.3.1/thumb/v7e-m+fp/hard\libgcc.a(_udivmoddi4.o)

.bss%z7         0x00000000        0x0
 .bss           0x00000000        0x0 c:/program files/microchip/xc32/v4.35/bin/bin/../../lib/gcc/pic32c/8.3.1/thumb/v7e-m+fp/hard\libgcc.a(_aeabi_uldivmod.o)

.bss%z8         0x00000000        0x0
 .bss           0x00000000        0x0 c:/program files/microchip/xc32/v4.35/bin/bin/../../lib/gcc/pic32c/8.3.1/thumb/v7e-m+fp/hard\libgcc.a(_aeabi_ldivmod.o)

.bss%z9         0x00000000        0x0
 .bss           0x00000000        0x0 c:/program files/microchip/xc32/v4.35/bin/bin/../../lib/gcc/pic32c/8.3.1/../../../../pic32c/lib/thumb/v7e-m+fp/hard\libg-musl.a(memcpy.o)

.bss%z10        0x00000000        0x0
 .bss           0x00000000        0x0 c:/program files/microchip/xc32/v4.35/bin/bin/../../lib/gcc/pic32c/8.3.1/../../../../pic32c/lib/thumb/v7e-m+fp/hard\libg-musl.a(__libc_start_main.o)

.bss%z11        0x00000000        0x0
 .bss           0x00000000        0x0 ..\src\config\default\X2CCode\X2CModel\Library\MCHP\Controller\lib\libCortexM4-ATSAM_MCHP.a(Clarke_Park_MCHP_FiP16.o)

.bss%z12        0x00000000        0x0
 .bss           0x00000000        0x0 ..\src\config\default\X2CCode\X2CModel\Library\MCHP\Controller\lib\libCortexM4-ATSAM_MCHP.a(Park_Clarke_inv_SVM_MCHP_FiP16.o)

.bss%z13        0x00000000        0x0
 .bss           0x00000000        0x0 ..\src\config\default\X2CCode\X2CModel\Library\Math\Controller\lib\libCortexM4-ATSAM_Math.a(uAdd_FiP16.o)

.bss%z14        0x00000000        0x0
 .bss           0x00000000        0x0 ..\src\config\default\X2CCode\X2CModel\Library\Math\Controller\lib\libCortexM4-ATSAM_Math.a(Sum_Float32.o)

.bss%z15        0x00000000        0x0
 .bss           0x00000000        0x0 ..\src\config\default\X2CCode\X2CModel\Library\Math\Controller\lib\libCortexM4-ATSAM_Math.a(Sub_FiP16.o)

.bss%z16        0x00000000        0x0
 .bss           0x00000000        0x0 ..\src\config\default\X2CCode\X2CModel\Library\Math\Controller\lib\libCortexM4-ATSAM_Math.a(Sign_FiP16.o)

.bss%z17        0x00000000        0x0
 .bss           0x00000000        0x0 ..\src\config\default\X2CCode\X2CModel\Library\Math\Controller\lib\libCortexM4-ATSAM_Math.a(Negation_FiP16.o)

.bss%z18        0x00000000        0x0
 .bss           0x00000000        0x0 ..\src\config\default\X2CCode\X2CModel\Library\Math\Controller\lib\libCortexM4-ATSAM_Math.a(Mult_Float32.o)

.bss%z19        0x00000000        0x0
 .bss           0x00000000        0x0 ..\src\config\default\X2CCode\X2CModel\Library\Math\Controller\lib\libCortexM4-ATSAM_Math.a(Mult_FiP16.o)

.bss%z20        0x00000000        0x0
 .bss           0x00000000        0x0 ..\src\config\default\X2CCode\X2CModel\Library\Math\Controller\lib\libCortexM4-ATSAM_Math.a(Average_FiP16.o)

.bss%z21        0x00000000        0x0
 .bss           0x00000000        0x0 ..\src\config\default\X2CCode\X2CModel\Library\Math\Controller\lib\libCortexM4-ATSAM_Math.a(Add_FiP16.o)

.bss%z22        0x00000000        0x0
 .bss           0x00000000        0x0 ..\src\config\default\X2CCode\X2CModel\Library\Math\Controller\lib\libCortexM4-ATSAM_Math.a(Abs_FiP16.o)

.bss%z23        0x00000000        0x0
 .bss           0x00000000        0x0 ..\src\config\default\X2CCode\X2CModel\Library\General\Controller\lib\libCortexM4-ATSAM_General.a(TypeConv_FiP16_Bool.o)

.bss%z24        0x00000000        0x0
 .bss           0x00000000        0x0 ..\src\config\default\X2CCode\X2CModel\Library\General\Controller\lib\libCortexM4-ATSAM_General.a(TypeConv_Bool_FiP16.o)

.bss%z25        0x00000000        0x0
 .bss           0x00000000        0x0 ..\src\config\default\X2CCode\X2CModel\Library\General\Controller\lib\libCortexM4-ATSAM_General.a(SinGen_FiP16.o)

.bss%z26        0x00000000        0x0
 .bss           0x00000000        0x0 ..\src\config\default\X2CCode\X2CModel\Library\General\Controller\lib\libCortexM4-ATSAM_General.a(Sequencer_FiP16.o)

.bss%z27        0x00000000        0x0
 .bss           0x00000000        0x0 ..\src\config\default\X2CCode\X2CModel\Library\General\Controller\lib\libCortexM4-ATSAM_General.a(Selector_FiP16.o)

.bss%z28        0x00000000        0x0
 .bss           0x00000000        0x0 ..\src\config\default\X2CCode\X2CModel\Library\General\Controller\lib\libCortexM4-ATSAM_General.a(SaveSignal_Float32.o)

.bss%z29        0x00000000        0x0
 .bss           0x00000000        0x0 ..\src\config\default\X2CCode\X2CModel\Library\General\Controller\lib\libCortexM4-ATSAM_General.a(Saturation_FiP16.o)

.bss%z30        0x00000000        0x0
 .bss           0x00000000        0x0 ..\src\config\default\X2CCode\X2CModel\Library\General\Controller\lib\libCortexM4-ATSAM_General.a(Real2Int_Float32_FiP8.o)

.bss%z31        0x00000000        0x0
 .bss           0x00000000        0x0 ..\src\config\default\X2CCode\X2CModel\Library\General\Controller\lib\libCortexM4-ATSAM_General.a(RateLimiter_FiP16.o)

.bss%z32        0x00000000        0x0
 .bss           0x00000000        0x0 ..\src\config\default\X2CCode\X2CModel\Library\General\Controller\lib\libCortexM4-ATSAM_General.a(Not_Bool.o)

.bss%z33        0x00000000        0x0
 .bss           0x00000000        0x0 ..\src\config\default\X2CCode\X2CModel\Library\General\Controller\lib\libCortexM4-ATSAM_General.a(ManualSwitch_FiP16.o)

.bss%z34        0x00000000        0x0
 .bss           0x00000000        0x0 ..\src\config\default\X2CCode\X2CModel\Library\General\Controller\lib\libCortexM4-ATSAM_General.a(ManualSwitch_Bool.o)

.bss%z35        0x00000000        0x0
 .bss           0x00000000        0x0 ..\src\config\default\X2CCode\X2CModel\Library\General\Controller\lib\libCortexM4-ATSAM_General.a(LookupTable_FiP16.o)

.bss%z36        0x00000000        0x0
 .bss           0x00000000        0x0 ..\src\config\default\X2CCode\X2CModel\Library\General\Controller\lib\libCortexM4-ATSAM_General.a(Int2Real_FiP16_Float32.o)

.bss%z37        0x00000000        0x0
 .bss           0x00000000        0x0 ..\src\config\default\X2CCode\X2CModel\Library\General\Controller\lib\libCortexM4-ATSAM_General.a(Gain_Float32.o)

.bss%z38        0x00000000        0x0
 .bss           0x00000000        0x0 ..\src\config\default\X2CCode\X2CModel\Library\General\Controller\lib\libCortexM4-ATSAM_General.a(Gain_FiP16.o)

.bss%z39        0x00000000        0x0
 .bss           0x00000000        0x0 ..\src\config\default\X2CCode\X2CModel\Library\General\Controller\lib\libCortexM4-ATSAM_General.a(Constant_Float32.o)

.bss%z40        0x00000000        0x0
 .bss           0x00000000        0x0 ..\src\config\default\X2CCode\X2CModel\Library\General\Controller\lib\libCortexM4-ATSAM_General.a(Constant_FiP16.o)

.bss%z41        0x00000000        0x0
 .bss           0x00000000        0x0 ..\src\config\default\X2CCode\X2CModel\Library\General\Controller\lib\libCortexM4-ATSAM_General.a(Constant_Bool.o)

.bss%z42        0x00000000        0x0
 .bss           0x00000000        0x0 ..\src\config\default\X2CCode\X2CModel\Library\General\Controller\lib\libCortexM4-ATSAM_General.a(AutoSwitch_FiP16.o)

.bss%z43        0x00000000        0x0
 .bss           0x00000000        0x0 ..\src\config\default\X2CCode\X2CModel\Library\Control\Controller\lib\libCortexM4-ATSAM_Control.a(PI_FiP16.o)

.bss%z44        0x00000000        0x0
 .bss           0x00000000        0x0 ..\src\config\default\X2CCode\X2CModel\Library\Control\Controller\lib\libCortexM4-ATSAM_Control.a(PILimit_FiP16.o)

.bss%z45        0x00000000        0x0
 .bss           0x00000000        0x0 build/default/debug/_ext/1171490990/libc_syscalls.o

.bss%z46        0x00000000        0x0
 .bss           0x00000000        0x0 build/default/debug/_ext/1171490990/exceptions.o

.bss%z47        0x00000000        0x0
 .bss           0x00000000        0x0 build/default/debug/_ext/1171490990/interrupts.o

.bss%z48        0x00000000        0x0
 .bss           0x00000000        0x0 build/default/debug/_ext/1171490990/initialization.o

.bss%z49        0x00000000        0x0
 .bss           0x00000000        0x0 build/default/debug/_ext/1171490990/startup_xc32.o

.bss%z50        0x00000000        0x0
 .bss           0x00000000        0x0 build/default/debug/_ext/546984198/FlashTable.o

.bss%z51        0x00000000        0x0
 .bss           0x00000000        0x0 build/default/debug/_ext/546984198/CommunicationUart.o

.bss%z52        0x00000000        0x0
 .bss           0x00000000        0x0 build/default/debug/_ext/630304036/BlockServices.o

.bss%z53        0x00000000        0x0
 .bss           0x00000000        0x0 build/default/debug/_ext/2032521757/SerialGeneric.o

.bss%z54        0x00000000        0x0
 .bss           0x00000000        0x0 build/default/debug/_ext/1455229975/TableStruct.o

.bss%z55        0x00000000        0x0
 .bss           0x00000000        0x0 build/default/debug/_ext/1455229975/Sqrt_Data.o

.bss%z56        0x00000000        0x0
 .bss           0x00000000        0x0 build/default/debug/_ext/1455229975/Sin_Data.o

.bss%z57        0x00000000        0x0
 .bss           0x00000000        0x0 build/default/debug/_ext/1455229975/Sin2_Data.o

.bss%z58        0x00000000        0x0
 .bss           0x00000000        0x0 build/default/debug/_ext/1455229975/Exp_Data.o

.bss%z59        0x00000000        0x0
 .bss           0x00000000        0x0 build/default/debug/_ext/1455229975/CommonFcts.o

.bss%z60        0x00000000        0x0
 .bss           0x00000000        0x0 build/default/debug/_ext/1455229975/Atan_Data.o

.bss%z61        0x00000000        0x0
 .bss           0x00000000        0x0 build/default/debug/_ext/163028504/xc32_monitor.o

.bss%z62        0x00000000        0x0
 .bss           0x00000000        0x0 build/default/debug/_ext/504274921/plib_sercom2_usart.o

.bss%z63        0x00000000        0x0
 .bss           0x00000000        0x0 build/default/debug/_ext/1865521619/plib_port.o

.bss%z64        0x00000000        0x0
 .bss           0x00000000        0x0 build/default/debug/_ext/1865510628/plib_pdec.o

.bss%z65        0x00000000        0x0
 .bss           0x00000000        0x0 build/default/debug/_ext/1865468468/plib_nvic.o

.bss%z66        0x00000000        0x0
 .bss           0x00000000        0x0 build/default/debug/_ext/1986646378/plib_evsys.o

.bss%z67        0x00000000        0x0
 .bss           0x00000000        0x0 build/default/debug/_ext/60167341/plib_eic.o

.bss%z68        0x00000000        0x0
 .bss           0x00000000        0x0 build/default/debug/_ext/1865131932/plib_cmcc.o

.bss%z69        0x00000000        0x0
 .bss           0x00000000        0x0 build/default/debug/_ext/1984496892/plib_clock.o

.bss%z70        0x00000000        0x0
 .bss           0x00000000        0x0 build/default/debug/_ext/60163342/plib_adc1.o

.bss%z71        0x00000000        0x0
 .bss           0x00000000        0x0 build/default/debug/_ext/1434821282/bsp.o

.bss%z72        0x00000000        0x0
 .bss           0x00000000        0x0 c:/program files/microchip/xc32/v4.35/bin/bin/../../lib/gcc/pic32c/8.3.1/thumb/v7e-m+fp/hard/crti.o

.data%17        0x20001ef4        0x4
 .data          0x20001ef4        0x4 c:/program files/microchip/xc32/v4.35/bin/bin/../../lib/gcc/pic32c/8.3.1/thumb/v7e-m+fp/hard/crtbegin.o
                0x20001ef4                __dso_handle

.data%18        0x20001ef8        0x4
 .data          0x20001ef8        0x4 build/default/debug/_ext/546984198/ConfigX2C.o
                0x20001ef8                TableStruct

.eh_frame%19    0x20001efc        0x4
 .eh_frame      0x20001efc        0x4 c:/program files/microchip/xc32/v4.35/bin/bin/../../lib/gcc/pic32c/8.3.1/thumb/v7e-m+fp/hard/crtend.o

.data%20        0x20001f00        0x2
 .data          0x20001f00        0x2 build/default/debug/_ext/546984198/X2C.o

.data%21        0x20001e8f        0x1
 .data          0x20001e8f        0x1 build/default/debug/_ext/546984198/PortConfigX2C.o

.data%z73       0x00000000        0x0
 .data          0x00000000        0x0 c:/program files/microchip/xc32/v4.35/bin/bin/../../lib/gcc/pic32c/8.3.1/../../../../pic32c/lib/thumb/v7e-m+fp/hard\libpic32c.a(pic32_data_init_copy.o)

.data%z74       0x00000000        0x0
 .data          0x00000000        0x0 c:/program files/microchip/xc32/v4.35/bin/bin/../../lib/gcc/pic32c/8.3.1/../../../../pic32c/lib/thumb/v7e-m+fp/hard\libpic32c.a(pic32_data_init_clear.o)

.data%z75       0x00000000        0x0
 .data          0x00000000        0x0 c:/program files/microchip/xc32/v4.35/bin/bin/../../lib/gcc/pic32c/8.3.1/thumb/v7e-m+fp/hard/crtn.o

.data%z76       0x00000000        0x0
 .data          0x00000000        0x0 c:/program files/microchip/xc32/v4.35/bin/bin/../../lib/gcc/pic32c/8.3.1/thumb/v7e-m+fp/hard/crtend.o

.data%z77       0x00000000        0x0
 .data          0x00000000        0x0 c:/program files/microchip/xc32/v4.35/bin/bin/../../lib/gcc/pic32c/8.3.1/thumb/v7e-m+fp/hard\libgcc.a(_dvmd_tls.o)

.data%z78       0x00000000        0x0
 .data          0x00000000        0x0 c:/program files/microchip/xc32/v4.35/bin/bin/../../lib/gcc/pic32c/8.3.1/thumb/v7e-m+fp/hard\libgcc.a(_udivmoddi4.o)

.data%z79       0x00000000        0x0
 .data          0x00000000        0x0 c:/program files/microchip/xc32/v4.35/bin/bin/../../lib/gcc/pic32c/8.3.1/thumb/v7e-m+fp/hard\libgcc.a(_aeabi_uldivmod.o)

.data%z80       0x00000000        0x0
 .data          0x00000000        0x0 c:/program files/microchip/xc32/v4.35/bin/bin/../../lib/gcc/pic32c/8.3.1/thumb/v7e-m+fp/hard\libgcc.a(_aeabi_ldivmod.o)

.data%z81       0x00000000        0x0
 .data          0x00000000        0x0 c:/program files/microchip/xc32/v4.35/bin/bin/../../lib/gcc/pic32c/8.3.1/../../../../pic32c/lib/thumb/v7e-m+fp/hard\libg-musl.a(__environ.o)

.data%z82       0x00000000        0x0
 .data          0x00000000        0x0 c:/program files/microchip/xc32/v4.35/bin/bin/../../lib/gcc/pic32c/8.3.1/../../../../pic32c/lib/thumb/v7e-m+fp/hard\libg-musl.a(memcpy.o)

.data%z83       0x00000000        0x0
 .data          0x00000000        0x0 c:/program files/microchip/xc32/v4.35/bin/bin/../../lib/gcc/pic32c/8.3.1/../../../../pic32c/lib/thumb/v7e-m+fp/hard\libg-musl.a(libc.o)

.data%z84       0x00000000        0x0
 .data          0x00000000        0x0 c:/program files/microchip/xc32/v4.35/bin/bin/../../lib/gcc/pic32c/8.3.1/../../../../pic32c/lib/thumb/v7e-m+fp/hard\libg-musl.a(__libc_start_main.o)

.data%z85       0x00000000        0x0
 .data          0x00000000        0x0 c:/program files/microchip/xc32/v4.35/bin/bin/../../lib/gcc/pic32c/8.3.1/../../../../pic32c/lib/thumb/v7e-m+fp/hard\libpic32c.a(data_init.o)

.data%z86       0x00000000        0x0
 .data          0x00000000        0x0 ..\src\config\default\X2CCode\X2CModel\Library\MCHP\Controller\lib\libCortexM4-ATSAM_MCHP.a(Clarke_Park_MCHP_FiP16.o)

.data%z87       0x00000000        0x0
 .data          0x00000000        0x0 ..\src\config\default\X2CCode\X2CModel\Library\MCHP\Controller\lib\libCortexM4-ATSAM_MCHP.a(Park_Clarke_inv_SVM_MCHP_FiP16.o)

.data%z88       0x00000000        0x0
 .data          0x00000000        0x0 ..\src\config\default\X2CCode\X2CModel\Library\Math\Controller\lib\libCortexM4-ATSAM_Math.a(uAdd_FiP16.o)

.data%z89       0x00000000        0x0
 .data          0x00000000        0x0 ..\src\config\default\X2CCode\X2CModel\Library\Math\Controller\lib\libCortexM4-ATSAM_Math.a(Sum_Float32.o)

.data%z90       0x00000000        0x0
 .data          0x00000000        0x0 ..\src\config\default\X2CCode\X2CModel\Library\Math\Controller\lib\libCortexM4-ATSAM_Math.a(Sub_FiP16.o)

.data%z91       0x00000000        0x0
 .data          0x00000000        0x0 ..\src\config\default\X2CCode\X2CModel\Library\Math\Controller\lib\libCortexM4-ATSAM_Math.a(Sign_FiP16.o)

.data%z92       0x00000000        0x0
 .data          0x00000000        0x0 ..\src\config\default\X2CCode\X2CModel\Library\Math\Controller\lib\libCortexM4-ATSAM_Math.a(Negation_FiP16.o)

.data%z93       0x00000000        0x0
 .data          0x00000000        0x0 ..\src\config\default\X2CCode\X2CModel\Library\Math\Controller\lib\libCortexM4-ATSAM_Math.a(Mult_Float32.o)

.data%z94       0x00000000        0x0
 .data          0x00000000        0x0 ..\src\config\default\X2CCode\X2CModel\Library\Math\Controller\lib\libCortexM4-ATSAM_Math.a(Mult_FiP16.o)

.data%z95       0x00000000        0x0
 .data          0x00000000        0x0 ..\src\config\default\X2CCode\X2CModel\Library\Math\Controller\lib\libCortexM4-ATSAM_Math.a(Average_FiP16.o)

.data%z96       0x00000000        0x0
 .data          0x00000000        0x0 ..\src\config\default\X2CCode\X2CModel\Library\Math\Controller\lib\libCortexM4-ATSAM_Math.a(Add_FiP16.o)

.data%z97       0x00000000        0x0
 .data          0x00000000        0x0 ..\src\config\default\X2CCode\X2CModel\Library\Math\Controller\lib\libCortexM4-ATSAM_Math.a(Abs_FiP16.o)

.data%z98       0x00000000        0x0
 .data          0x00000000        0x0 ..\src\config\default\X2CCode\X2CModel\Library\General\Controller\lib\libCortexM4-ATSAM_General.a(TypeConv_FiP16_Bool.o)

.data%z99       0x00000000        0x0
 .data          0x00000000        0x0 ..\src\config\default\X2CCode\X2CModel\Library\General\Controller\lib\libCortexM4-ATSAM_General.a(TypeConv_Bool_FiP16.o)

.data%z100      0x00000000        0x0
 .data          0x00000000        0x0 ..\src\config\default\X2CCode\X2CModel\Library\General\Controller\lib\libCortexM4-ATSAM_General.a(SinGen_FiP16.o)

.data%z101      0x00000000        0x0
 .data          0x00000000        0x0 ..\src\config\default\X2CCode\X2CModel\Library\General\Controller\lib\libCortexM4-ATSAM_General.a(Sequencer_FiP16.o)

.data%z102      0x00000000        0x0
 .data          0x00000000        0x0 ..\src\config\default\X2CCode\X2CModel\Library\General\Controller\lib\libCortexM4-ATSAM_General.a(Selector_FiP16.o)

.data%z103      0x00000000        0x0
 .data          0x00000000        0x0 ..\src\config\default\X2CCode\X2CModel\Library\General\Controller\lib\libCortexM4-ATSAM_General.a(SaveSignal_Float32.o)

.data%z104      0x00000000        0x0
 .data          0x00000000        0x0 ..\src\config\default\X2CCode\X2CModel\Library\General\Controller\lib\libCortexM4-ATSAM_General.a(Saturation_FiP16.o)

.data%z105      0x00000000        0x0
 .data          0x00000000        0x0 ..\src\config\default\X2CCode\X2CModel\Library\General\Controller\lib\libCortexM4-ATSAM_General.a(Real2Int_Float32_FiP8.o)

.data%z106      0x00000000        0x0
 .data          0x00000000        0x0 ..\src\config\default\X2CCode\X2CModel\Library\General\Controller\lib\libCortexM4-ATSAM_General.a(RateLimiter_FiP16.o)

.data%z107      0x00000000        0x0
 .data          0x00000000        0x0 ..\src\config\default\X2CCode\X2CModel\Library\General\Controller\lib\libCortexM4-ATSAM_General.a(Not_Bool.o)

.data%z108      0x00000000        0x0
 .data          0x00000000        0x0 ..\src\config\default\X2CCode\X2CModel\Library\General\Controller\lib\libCortexM4-ATSAM_General.a(ManualSwitch_FiP16.o)

.data%z109      0x00000000        0x0
 .data          0x00000000        0x0 ..\src\config\default\X2CCode\X2CModel\Library\General\Controller\lib\libCortexM4-ATSAM_General.a(ManualSwitch_Bool.o)

.data%z110      0x00000000        0x0
 .data          0x00000000        0x0 ..\src\config\default\X2CCode\X2CModel\Library\General\Controller\lib\libCortexM4-ATSAM_General.a(LookupTable_FiP16.o)

.data%z111      0x00000000        0x0
 .data          0x00000000        0x0 ..\src\config\default\X2CCode\X2CModel\Library\General\Controller\lib\libCortexM4-ATSAM_General.a(Int2Real_FiP16_Float32.o)

.data%z112      0x00000000        0x0
 .data          0x00000000        0x0 ..\src\config\default\X2CCode\X2CModel\Library\General\Controller\lib\libCortexM4-ATSAM_General.a(Gain_Float32.o)

.data%z113      0x00000000        0x0
 .data          0x00000000        0x0 ..\src\config\default\X2CCode\X2CModel\Library\General\Controller\lib\libCortexM4-ATSAM_General.a(Gain_FiP16.o)

.data%z114      0x00000000        0x0
 .data          0x00000000        0x0 ..\src\config\default\X2CCode\X2CModel\Library\General\Controller\lib\libCortexM4-ATSAM_General.a(Constant_Float32.o)

.data%z115      0x00000000        0x0
 .data          0x00000000        0x0 ..\src\config\default\X2CCode\X2CModel\Library\General\Controller\lib\libCortexM4-ATSAM_General.a(Constant_FiP16.o)

.data%z116      0x00000000        0x0
 .data          0x00000000        0x0 ..\src\config\default\X2CCode\X2CModel\Library\General\Controller\lib\libCortexM4-ATSAM_General.a(Constant_Bool.o)

.data%z117      0x00000000        0x0
 .data          0x00000000        0x0 ..\src\config\default\X2CCode\X2CModel\Library\General\Controller\lib\libCortexM4-ATSAM_General.a(AutoSwitch_FiP16.o)

.data%z118      0x00000000        0x0
 .data          0x00000000        0x0 ..\src\config\default\X2CCode\X2CModel\Library\Control\Controller\lib\libCortexM4-ATSAM_Control.a(PI_FiP16.o)

.data%z119      0x00000000        0x0
 .data          0x00000000        0x0 ..\src\config\default\X2CCode\X2CModel\Library\Control\Controller\lib\libCortexM4-ATSAM_Control.a(PILimit_FiP16.o)

.data%z120      0x00000000        0x0
 .data          0x00000000        0x0 build/default/debug/_ext/1360937237/main.o

.data%z121      0x00000000        0x0
 .data          0x00000000        0x0 build/default/debug/_ext/1171490990/libc_syscalls.o

.data%z122      0x00000000        0x0
 .data          0x00000000        0x0 build/default/debug/_ext/1171490990/exceptions.o

.data%z123      0x00000000        0x0
 .data          0x00000000        0x0 build/default/debug/_ext/1171490990/interrupts.o

.data%z124      0x00000000        0x0
 .data          0x00000000        0x0 build/default/debug/_ext/1171490990/initialization.o

.data%z125      0x00000000        0x0
 .data          0x00000000        0x0 build/default/debug/_ext/1171490990/startup_xc32.o

.data%z126      0x00000000        0x0
 .data          0x00000000        0x0 build/default/debug/_ext/546984198/Scope_Main.o

.data%z127      0x00000000        0x0
 .data          0x00000000        0x0 build/default/debug/_ext/546984198/RamTable.o

.data%z128      0x00000000        0x0
 .data          0x00000000        0x0 build/default/debug/_ext/546984198/FlashTable.o

.data%z129      0x00000000        0x0
 .data          0x00000000        0x0 build/default/debug/_ext/546984198/CommunicationUart.o

.data%z130      0x00000000        0x0
 .data          0x00000000        0x0 build/default/debug/_ext/630304036/Services.o

.data%z131      0x00000000        0x0
 .data          0x00000000        0x0 build/default/debug/_ext/630304036/BlockServices.o

.data%z132      0x00000000        0x0
 .data          0x00000000        0x0 build/default/debug/_ext/1371241226/LNet.o

.data%z133      0x00000000        0x0
 .data          0x00000000        0x0 build/default/debug/_ext/2032521757/SerialGeneric.o

.data%z134      0x00000000        0x0
 .data          0x00000000        0x0 build/default/debug/_ext/309582698/CRC8CCITT.o

.data%z135      0x00000000        0x0
 .data          0x00000000        0x0 build/default/debug/_ext/1455229975/TableStruct.o

.data%z136      0x00000000        0x0
 .data          0x00000000        0x0 build/default/debug/_ext/1455229975/Sqrt_Data.o

.data%z137      0x00000000        0x0
 .data          0x00000000        0x0 build/default/debug/_ext/1455229975/Sin_Data.o

.data%z138      0x00000000        0x0
 .data          0x00000000        0x0 build/default/debug/_ext/1455229975/Sin2_Data.o

.data%z139      0x00000000        0x0
 .data          0x00000000        0x0 build/default/debug/_ext/1455229975/Exp_Data.o

.data%z140      0x00000000        0x0
 .data          0x00000000        0x0 build/default/debug/_ext/1455229975/CommonFcts.o

.data%z141      0x00000000        0x0
 .data          0x00000000        0x0 build/default/debug/_ext/1455229975/Atan_Data.o

.data%z142      0x00000000        0x0
 .data          0x00000000        0x0 build/default/debug/_ext/163028504/xc32_monitor.o

.data%z143      0x00000000        0x0
 .data          0x00000000        0x0 build/default/debug/_ext/60181570/plib_tcc0.o

.data%z144      0x00000000        0x0
 .data          0x00000000        0x0 build/default/debug/_ext/504274921/plib_sercom2_usart.o

.data%z145      0x00000000        0x0
 .data          0x00000000        0x0 build/default/debug/_ext/1865521619/plib_port.o

.data%z146      0x00000000        0x0
 .data          0x00000000        0x0 build/default/debug/_ext/1865510628/plib_pdec.o

.data%z147      0x00000000        0x0
 .data          0x00000000        0x0 build/default/debug/_ext/1593096446/plib_nvmctrl.o

.data%z148      0x00000000        0x0
 .data          0x00000000        0x0 build/default/debug/_ext/1865468468/plib_nvic.o

.data%z149      0x00000000        0x0
 .data          0x00000000        0x0 build/default/debug/_ext/1986646378/plib_evsys.o

.data%z150      0x00000000        0x0
 .data          0x00000000        0x0 build/default/debug/_ext/60167341/plib_eic.o

.data%z151      0x00000000        0x0
 .data          0x00000000        0x0 build/default/debug/_ext/1865131932/plib_cmcc.o

.data%z152      0x00000000        0x0
 .data          0x00000000        0x0 build/default/debug/_ext/1984496892/plib_clock.o

.data%z153      0x00000000        0x0
 .data          0x00000000        0x0 build/default/debug/_ext/60163342/plib_adc1.o

.data%z154      0x00000000        0x0
 .data          0x00000000        0x0 build/default/debug/_ext/60163342/plib_adc0.o

.data%z155      0x00000000        0x0
 .data          0x00000000        0x0 build/default/debug/_ext/1434821282/bsp.o

.eh_frame%z156  0x00000000        0x0
 .eh_frame      0x00000000        0x0 c:/program files/microchip/xc32/v4.35/bin/bin/../../lib/gcc/pic32c/8.3.1/thumb/v7e-m+fp/hard/crtbegin.o

.data%z157      0x00000000        0x0
 .data          0x00000000        0x0 c:/program files/microchip/xc32/v4.35/bin/bin/../../lib/gcc/pic32c/8.3.1/thumb/v7e-m+fp/hard/crti.o

.rodata%22      0x0000028c     0x1524
 .rodata        0x0000028c     0x1524 build/default/debug/_ext/1455229975/Sin_Data.o
                0x0000028c                Acos_Table32
                0x00000690                Acos_Table16
                0x00000894                Acos_Table8
                0x00000998                Asin_Table32
                0x00000d9c                Asin_Table16
                0x00000fa0                Asin_Table8
                0x000010a4                Sin_Table32
                0x000014a8                Sin_Table16
                0x000016ac                Sin_Table8

.text%23        0x000017b0      0xec4
 .text          0x000017b0      0xec4 build/default/debug/_ext/546984198/X2C.o
                0x000017b0                getModelSampleTime
                0x000017bc                X2C_Init
                0x00002394                X2C_Update_1
                0x00002518                X2C_Update_10
                0x0000264c                X2C_Update

.rodata%24      0x00002674      0xe18
 .rodata        0x00002674      0xe18 build/default/debug/_ext/1455229975/Sqrt_Data.o
                0x00002674                InvSqrt_Table32
                0x00002a78                InvSqrt_Table16
                0x00002c7c                InvSqrt_Table8
                0x00002d80                Sqrt_Table32
                0x00003184                Sqrt_Table16
                0x00003388                Sqrt_Table8

.text%25        0x0000348c      0xb00
 .text          0x0000348c      0xb00 build/default/debug/_ext/546984198/Scope_Main.o
                0x000036c0                Scope_Main_Init
                0x0000372c                Scope_Main_Update
                0x00003a08                Scope_Main_Load
                0x00003ab8                Scope_Main_Save
                0x00003f88                Scope_Main_GetAddress

.rodata%26      0x00003f8c      0x818
 .rodata        0x00003f8c      0x818 build/default/debug/_ext/546984198/X2C.o
                0x00003f8c                blockFunctionTable
                0x000042ec                parameterIdTable
                0x000046c4                inportParamIdTable
                0x00004724                outportParamIdTable
                0x0000476c                maskParamIdTable
                0x00004780                maskParamDataTable
                0x0000478c                maskParamExtTable

.text%27        0x000047a4      0x774
 .text          0x000047a4      0x774 build/default/debug/_ext/630304036/Services.o
                0x000047a4                sendSvNotAvailable
                0x00004e98                sendError
                0x00004eac                initServiceTable
                0x00004ed0                addCoreServices

.rodata%28      0x00004f18      0x70c
 .rodata        0x00004f18      0x70c build/default/debug/_ext/1455229975/Atan_Data.o
                0x00004f18                Atan_Table32
                0x0000531c                Atan_Table16
                0x00005520                Atan_Table8

.rodata%29      0x00005624      0x70c
 .rodata        0x00005624      0x70c build/default/debug/_ext/1455229975/Exp_Data.o
                0x00005624                Exp_Table32
                0x00005a28                Exp_Table16
                0x00005c2c                Exp_Table8

.rodata%30      0x00005d30      0x70c
 .rodata        0x00005d30      0x70c build/default/debug/_ext/1455229975/Sin2_Data.o
                0x00005d30                Sin2_Table32
                0x00006134                Sin2_Table16
                0x00006338                Sin2_Table8

.rodata%31      0x0000643c      0x608
 .rodata        0x0000643c      0x608 build/default/debug/_ext/546984198/FlashTable.o
                0x0000643c                FlashTable_int16

.text%32        0x00006a44      0x5c4
 .text          0x00006a44      0x5c4 build/default/debug/_ext/1371241226/LNet.o
                0x00006fc0                initLNet

.text%33        0x00007008      0x4c0
 .text          0x00007008      0x4c0 build/default/debug/_ext/1455229975/CommonFcts.o
                0x00007008                Common_Init
                0x0000700c                Common_Update
                0x00007010                Common_Load
                0x00007018                Common_Save
                0x00007020                Common_GetAddress
                0x00007024                Common_InitMP
                0x00007028                Common_SaveMP
                0x0000702c                Common_LoadMP
                0x00007034                Common_ConvertMP
                0x00007038                Common_BackupMP
                0x0000703c                Common_RestoreMP
                0x00007040                getAbsValI8
                0x00007058                getAbsValI16
                0x00007070                getAbsValI32
                0x00007084                getAbsValI64
                0x000070b8                getAbsValR32
                0x000070c8                getAbsValR64
                0x000070ec                getIoParamIndex
                0x0000713c                getBlockParamIndex
                0x0000718c                getMaskParamIndex
                0x000071e0                getMaskParamExtIndex
                0x00007234                getBlockFunctionIndex
                0x00007288                getMaskParamDataTableIndex
                0x000072c8                getQFormat
                0x00007390                getQx8Value
                0x000073c0                getQx16Value
                0x000073f4                getQx32Value
                0x0000743c                getAQx8Value
                0x00007460                getAQx16Value
                0x00007484                getAQx32Value

.text%34        0x000074c8      0x408
 .text          0x000074c8      0x408 build/default/debug/_ext/630304036/BlockServices.o
                0x000074c8                putRAMBlock
                0x00007634                getRAMBlock
                0x00007764                putBlockData
                0x00007804                getBlockData
                0x000078a8                addBlockServices
                0x000078c4                addExtendedBlockServices

.rodata%35      0x000078d0      0x408
 .rodata        0x000078d0      0x408 build/default/debug/_ext/546984198/RamTable.o

.text%36        0x00007cd8      0x32c
 .text          0x00007cd8      0x32c build/default/debug/_ext/546984198/PortConfigX2C.o
                0x00007cd8                readInports
                0x00007ee8                writeOutports
                0x00007fe4                Reset_Position

.text%37        0x00008004      0x2fc
 .text          0x00008004      0x2fc build/default/debug/_ext/1593096446/plib_nvmctrl.o
                0x00008004                NVMCTRL_Initialize
                0x00008014                NVMCTRL_Read
                0x00008024                NVMCTRL_SetWriteMode
                0x00008038                NVMCTRL_QuadWordWrite
                0x00008090                NVMCTRL_DoubleWordWrite
                0x000080dc                NVMCTRL_PageBufferWrite
                0x00008104                NVMCTRL_PageBufferCommit
                0x00008128                NVMCTRL_PageWrite
                0x00008164                NVMCTRL_BlockErase
                0x00008188                NVMCTRL_USER_ROW_PageWrite
                0x000081ec                NVMCTRL_USER_ROW_RowErase
                0x00008224                NVMCTRL_ErrorGet
                0x00008244                NVMCTRL_StatusGet
                0x00008250                NVMCTRL_IsBusy
                0x00008260                NVMCTRL_RegionLock
                0x00008270                NVMCTRL_RegionUnlock
                0x00008280                NVMCTRL_RegionLockStatusGet
                0x0000828c                NVMCTRL_SecurityBitSet
                0x0000829c                NVMCTRL_SmartEEPROM_IsBusy
                0x000082ac                NVMCTRL_SmartEEPROMStatusGet
                0x000082b8                NVMCTRL_SmartEEPROM_IsActiveSectorFull
                0x000082c8                NVMCTRL_BankSwap
                0x000082d8                NVMCTRL_SmartEEPROMSectorReallocate
                0x000082e8                NVMCTRL_SmartEEPROMFlushPageBuffer

.text%38        0x00008300      0x2f4
 .text          0x00008300      0x2f4 build/default/debug/_ext/504274921/plib_sercom2_usart.o
                0x00008320                SERCOM2_USART_Initialize
                0x00008354                SERCOM2_USART_FrequencyGet
                0x0000835c                SERCOM2_USART_SerialSetup
                0x0000845c                SERCOM2_USART_ErrorGet
                0x00008478                SERCOM2_USART_Enable
                0x00008494                SERCOM2_USART_Disable
                0x000084b0                SERCOM2_USART_TransmitterEnable
                0x000084c8                SERCOM2_USART_TransmitterDisable
                0x000084e0                SERCOM2_USART_Write
                0x0000851c                SERCOM2_USART_TransmitterIsReady
                0x0000852c                SERCOM2_USART_WriteByte
                0x00008540                SERCOM2_USART_TransmitComplete
                0x00008550                SERCOM2_USART_ReceiverEnable
                0x00008568                SERCOM2_USART_ReceiverDisable
                0x00008580                SERCOM2_USART_Read
                0x000085d8                SERCOM2_USART_ReceiverIsReady
                0x000085e8                SERCOM2_USART_ReadByte

.text%39        0x000085f4      0x2bc
 .text          0x000085f4      0x2bc c:/program files/microchip/xc32/v4.35/bin/bin/../../lib/gcc/pic32c/8.3.1/thumb/v7e-m+fp/hard\libgcc.a(_udivmoddi4.o)
                0x000085f4                __udivmoddi4

.text%40        0x000088b0      0x1b4
 .text          0x000088b0      0x1b4 ..\src\config\default\X2CCode\X2CModel\Library\Math\Controller\lib\libCortexM4-ATSAM_Math.a(Sum_Float32.o)
                0x000088b0                Sum_Float32_Update
                0x000089e4                Sum_Float32_Init
                0x000089f0                Sum_Float32_Load
                0x00008a10                Sum_Float32_Save
                0x00008a28                Sum_Float32_GetAddress

.text%41        0x00008a64      0x198
 .text          0x00008a64      0x198 build/default/debug/_ext/60181570/plib_tcc0.o
                0x00008a64                TCC0_PWMInitialize
                0x00008ac4                TCC0_PWMStart
                0x00008adc                TCC0_PWMStop
                0x00008af4                TCC0_PWM24bitPeriodSet
                0x00008b0c                TCC0_PWM24bitPeriodGet
                0x00008b20                TCC0_PWMDeadTimeSet
                0x00008b3c                TCC0_PWMPatternSet
                0x00008b58                TCC0_PWM24bitCounterGet
                0x00008b7c                TCC0_PWM24bitCounterSet
                0x00008b90                TCC0_PWMForceUpdate
                0x00008ba8                TCC0_PWMPeriodInterruptEnable
                0x00008bb4                TCC0_PWMPeriodInterruptDisable
                0x00008bc0                TCC0_PWMCallbackRegister
                0x00008bcc                TCC0_OTHER_InterruptHandler

.text%42        0x00008bfc      0x17c
 .text          0x00008bfc      0x17c build/default/debug/_ext/60163342/plib_adc0.o
                0x00008bfc                ADC0_Initialize
                0x00008c60                ADC0_Enable
                0x00008c78                ADC0_Disable
                0x00008c94                ADC0_ChannelSelect
                0x00008cb8                ADC0_ConversionStart
                0x00008cd0                ADC0_ComparisonWindowSet
                0x00008ce4                ADC0_WindowModeSet
                0x00008d08                ADC0_ConversionResultGet
                0x00008d14                ADC0_LastConversionResultGet
                0x00008d20                ADC0_InterruptsClear
                0x00008d2c                ADC0_InterruptsEnable
                0x00008d38                ADC0_InterruptsDisable
                0x00008d44                ADC0_CallbackRegister
                0x00008d50                ADC0_RESRDY_InterruptHandler

.text%43        0x00008d78      0x174
 .text          0x00008d78      0x174 ..\src\config\default\X2CCode\X2CModel\Library\MCHP\Controller\lib\libCortexM4-ATSAM_MCHP.a(Park_Clarke_inv_SVM_MCHP_FiP16.o)
                0x00008d78                Park_Clarke_inv_SVM_MCHP_FiP16_Update
                0x00008e98                Park_Clarke_inv_SVM_MCHP_FiP16_Init
                0x00008eac                Park_Clarke_inv_SVM_MCHP_FiP16_GetAddress

.text%44        0x00008eec      0x154
 .text          0x00008eec      0x154 build/default/debug/_ext/60163342/plib_adc1.o
                0x00008eec                ADC1_Initialize
                0x00008f44                ADC1_Enable
                0x00008f5c                ADC1_Disable
                0x00008f78                ADC1_ChannelSelect
                0x00008f9c                ADC1_ConversionStart
                0x00008fb4                ADC1_ComparisonWindowSet
                0x00008fc8                ADC1_WindowModeSet
                0x00008fec                ADC1_ConversionResultGet
                0x00008ff8                ADC1_LastConversionResultGet
                0x00009004                ADC1_InterruptsClear
                0x00009010                ADC1_InterruptsEnable
                0x0000901c                ADC1_InterruptsDisable
                0x00009028                ADC1_ConversionStatusGet

.text%45        0x00009040      0x13c
 .text          0x00009040      0x13c build/default/debug/_ext/1865521619/plib_port.o
                0x00009040                PORT_Initialize
                0x000090ec                PORT_GroupRead
                0x000090f0                PORT_GroupWrite
                0x000090fc                PORT_GroupLatchRead
                0x00009100                PORT_GroupSet
                0x00009104                PORT_GroupClear
                0x00009108                PORT_GroupToggle
                0x0000910c                PORT_GroupInputEnable
                0x00009110                PORT_GroupOutputEnable
                0x00009114                PORT_PinPeripheralFunctionConfig
                0x0000915c                PORT_PinGPIOConfig

.text%46        0x0000917c      0x13c
 .text          0x0000917c      0x13c ..\src\config\default\X2CCode\X2CModel\Library\General\Controller\lib\libCortexM4-ATSAM_General.a(RateLimiter_FiP16.o)
                0x0000917c                RateLimiter_FiP16_Update
                0x00009204                RateLimiter_FiP16_Init
                0x0000921c                RateLimiter_FiP16_Load
                0x00009258                RateLimiter_FiP16_Save
                0x00009294                RateLimiter_FiP16_GetAddress

.text%47        0x000092b8      0x138
 .text          0x000092b8      0x138 build/default/debug/_ext/1984496892/plib_clock.o
                0x000092b8                CLOCK_Initialize

.text%48        0x000093f0      0x138
 .text          0x000093f0      0x138 ..\src\config\default\X2CCode\X2CModel\Library\Control\Controller\lib\libCortexM4-ATSAM_Control.a(PILimit_FiP16.o)
                0x000093f0                PILimit_FiP16_Update
                0x0000948c                PILimit_FiP16_Init
                0x000094a8                PILimit_FiP16_Load
                0x000094d4                PILimit_FiP16_Save
                0x000094fc                PILimit_FiP16_GetAddress

.text.__aeabi_dmul%49
                0x00009528      0x130
 .text.__aeabi_dmul
                0x00009528      0x130 c:/program files/microchip/xc32/v4.35/bin/bin/../../lib/gcc/pic32c/8.3.1/../../../../pic32c/lib/thumb/v7e-m+fp/hard\libm-fast-emfloat.a(__aeabi_dmul.o)
                0x00009528                __aeabi_dmul

.text%50        0x00009658      0x128
 .text          0x00009658      0x128 build/default/debug/_ext/1360937237/main.o
                0x00009658                ADC0_Tasks
                0x00009710                ADC_Calibration
                0x00009758                main

.text%51        0x00009780      0x124
 .text          0x00009780      0x124 ..\src\config\default\X2CCode\X2CModel\Library\Control\Controller\lib\libCortexM4-ATSAM_Control.a(PI_FiP16.o)
                0x00009780                PI_FiP16_Update
                0x00009814                PI_FiP16_Init
                0x0000982c                PI_FiP16_Load
                0x00009858                PI_FiP16_Save
                0x00009880                PI_FiP16_GetAddress

.text%52        0x000098a4      0x11c
 .text          0x000098a4      0x11c ..\src\config\default\X2CCode\X2CModel\Library\General\Controller\lib\libCortexM4-ATSAM_General.a(Sequencer_FiP16.o)
                0x000098a4                Sequencer_FiP16_Update
                0x0000990c                Sequencer_FiP16_Init
                0x00009924                Sequencer_FiP16_Load
                0x00009964                Sequencer_FiP16_Save
                0x00009998                Sequencer_FiP16_GetAddress

.dinit%53       0x000099c0      0x110
 .dinit         0x000099c0      0x110 data_init

.rodata%54      0x00009ad0      0x100
 .rodata        0x00009ad0      0x100 build/default/debug/_ext/309582698/CRC8CCITT.o
                0x00009ad0                CRC_TABLE

.text%55        0x00009bd0       0xf4
 .text          0x00009bd0       0xf4 ..\src\config\default\X2CCode\X2CModel\Library\General\Controller\lib\libCortexM4-ATSAM_General.a(SinGen_FiP16.o)
                0x00009bd0                SinGen_FiP16_Update
                0x00009c3c                SinGen_FiP16_Init
                0x00009c4c                SinGen_FiP16_Load
                0x00009c7c                SinGen_FiP16_Save
                0x00009ca8                SinGen_FiP16_GetAddress

.text%56        0x00009cc4       0xd4
 .text          0x00009cc4       0xd4 ..\src\config\default\X2CCode\X2CModel\Library\Math\Controller\lib\libCortexM4-ATSAM_Math.a(Average_FiP16.o)
                0x00009cc4                Average_FiP16_Update
                0x00009cfc                Average_FiP16_Init
                0x00009d28                Average_FiP16_Load
                0x00009d48                Average_FiP16_Save
                0x00009d84                Average_FiP16_GetAddress

.text%57        0x00009d98       0xd4
 .text          0x00009d98       0xd4 ..\src\config\default\X2CCode\X2CModel\Library\MCHP\Controller\lib\libCortexM4-ATSAM_MCHP.a(Clarke_Park_MCHP_FiP16.o)
                0x00009d98                Clarke_Park_MCHP_FiP16_Update
                0x00009e24                Clarke_Park_MCHP_FiP16_Init
                0x00009e38                Clarke_Park_MCHP_FiP16_GetAddress

.text%58        0x00009e6c       0xc8
 .text          0x00009e6c       0xc8 build/default/debug/_ext/1865510628/plib_pdec.o
                0x00009e6c                PDEC_QDECInitialize
                0x00009ea8                PDEC_QDECStart
                0x00009ec4                PDEC_QDECStop
                0x00009ee0                PDEC_QDECPositionGet
                0x00009f00                PDEC_QDECRevolutionsGet
                0x00009f20                PDEC_QDECAngleGet
                0x00009f24                PDEC_QDECStatusGet

.text%59        0x00009f34       0xc4
 .text          0x00009f34       0xc4 build/default/debug/_ext/1865131932/plib_cmcc.o
                0x00009f34                CMCC_Disable
                0x00009f4c                CMCC_EnableICache
                0x00009f70                CMCC_DisableICache
                0x00009f94                CMCC_EnableDCache
                0x00009fb8                CMCC_DisableDCache
                0x00009fdc                CMCC_InvalidateAll

.text%60        0x00009ff8       0xa8
 .text          0x00009ff8       0xa8 ..\src\config\default\X2CCode\X2CModel\Library\General\Controller\lib\libCortexM4-ATSAM_General.a(AutoSwitch_FiP16.o)
                0x00009ff8                AutoSwitch_FiP16_Update
                0x0000a028                AutoSwitch_FiP16_Init
                0x0000a038                AutoSwitch_FiP16_Load
                0x0000a05c                AutoSwitch_FiP16_Save
                0x0000a07c                AutoSwitch_FiP16_GetAddress

.text%61        0x0000a0a0       0xa0
 .text          0x0000a0a0       0xa0 ..\src\config\default\X2CCode\X2CModel\Library\General\Controller\lib\libCortexM4-ATSAM_General.a(Real2Int_Float32_FiP8.o)
                0x0000a0a0                Real2Int_Float32_FiP8_Update
                0x0000a0d4                Real2Int_Float32_FiP8_Init
                0x0000a0e0                Real2Int_Float32_FiP8_Load
                0x0000a104                Real2Int_Float32_FiP8_Save
                0x0000a12c                Real2Int_Float32_FiP8_GetAddress

.text%62        0x0000a140       0xa0
 .text          0x0000a140       0xa0 c:/program files/microchip/xc32/v4.35/bin/bin/../../lib/gcc/pic32c/8.3.1/thumb/v7e-m+fp/hard\libgcc.a(_aeabi_ldivmod.o)
                0x0000a140                __aeabi_ldivmod

.text%63        0x0000a1e0       0x98
 .text          0x0000a1e0       0x98 build/default/debug/_ext/546984198/ConfigX2C.o
                0x0000a1e0                X2C_Initialize
                0x0000a254                X2C_Communicate
                0x0000a264                X2C_UpdateModel

.text%64        0x0000a278       0x8c
 .text          0x0000a278       0x8c build/default/debug/_ext/1865468468/plib_nvic.o
                0x0000a278                NVIC_Initialize
                0x0000a2d4                NVIC_INT_Enable
                0x0000a2dc                NVIC_INT_Disable
                0x0000a2f0                NVIC_INT_Restore

.text%65        0x0000a304       0x8c
 .text          0x0000a304       0x8c build/default/debug/_ext/546984198/CommunicationUart.o
                0x0000a354                initCommunication
                0x0000a38c                linkCommunication

.text.Reset_Handler%66
                0x0000a390       0x8c
 .text.Reset_Handler
                0x0000a390       0x8c build/default/debug/_ext/1171490990/startup_xc32.o
                0x0000a390                Reset_Handler

.text%67        0x0000a41c       0x8c
 .text          0x0000a41c       0x8c ..\src\config\default\X2CCode\X2CModel\Library\General\Controller\lib\libCortexM4-ATSAM_General.a(Gain_FiP16.o)
                0x0000a41c                Gain_FiP16_Update
                0x0000a44c                Gain_FiP16_Init
                0x0000a458                Gain_FiP16_Load
                0x0000a478                Gain_FiP16_Save
                0x0000a494                Gain_FiP16_GetAddress

.text%68        0x0000a4a8       0x88
 .text          0x0000a4a8       0x88 ..\src\config\default\X2CCode\X2CModel\Library\General\Controller\lib\libCortexM4-ATSAM_General.a(Int2Real_FiP16_Float32.o)
                0x0000a4a8                Int2Real_FiP16_Float32_Update
                0x0000a4c4                Int2Real_FiP16_Float32_Init
                0x0000a4d0                Int2Real_FiP16_Float32_Load
                0x0000a4f4                Int2Real_FiP16_Float32_Save
                0x0000a51c                Int2Real_FiP16_Float32_GetAddress

.text%69        0x0000a530       0x80
 .text          0x0000a530       0x80 ..\src\config\default\X2CCode\X2CModel\Library\General\Controller\lib\libCortexM4-ATSAM_General.a(Gain_Float32.o)
                0x0000a530                Gain_Float32_Update
                0x0000a544                Gain_Float32_Init
                0x0000a550                Gain_Float32_Load
                0x0000a574                Gain_Float32_Save
                0x0000a59c                Gain_Float32_GetAddress

.text%70        0x0000a5b0       0x80
 .text          0x0000a5b0       0x80 ..\src\config\default\X2CCode\X2CModel\Library\General\Controller\lib\libCortexM4-ATSAM_General.a(Saturation_FiP16.o)
                0x0000a5b0                Saturation_FiP16_Update
                0x0000a5cc                Saturation_FiP16_Init
                0x0000a5d8                Saturation_FiP16_Load
                0x0000a5fc                Saturation_FiP16_Save
                0x0000a61c                Saturation_FiP16_GetAddress

.text%71        0x0000a630       0x7c
 .text          0x0000a630       0x7c build/default/debug/_ext/1986646378/plib_evsys.o
                0x0000a630                EVSYS_Initialize
                0x0000a658                EVSYS_GeneratorEnable
                0x0000a674                EVSYS_GeneratorDisable
                0x0000a688                EVSYS_UserEnable
                0x0000a69c                EVSYS_UserDisable

.text.__aeabi_f2lz%72
                0x0000a6ac       0x72
 .text.__aeabi_f2lz
                0x0000a6ac       0x72 c:/program files/microchip/xc32/v4.35/bin/bin/../../lib/gcc/pic32c/8.3.1/../../../../pic32c/lib/thumb/v7e-m+fp/hard\libm-fast-emfloat.a(__aeabi_f2lz.o)
                0x0000a6ac                __aeabi_f2lz

.text%73        0x0000a720       0x70
 .text          0x0000a720       0x70 ..\src\config\default\X2CCode\X2CModel\Library\Math\Controller\lib\libCortexM4-ATSAM_Math.a(Mult_FiP16.o)
                0x0000a720                Mult_FiP16_Update
                0x0000a768                Mult_FiP16_Init
                0x0000a774                Mult_FiP16_GetAddress

.text%74        0x0000a790       0x64
 .text          0x0000a790       0x64 ..\src\config\default\X2CCode\X2CModel\Library\General\Controller\lib\libCortexM4-ATSAM_General.a(Constant_Float32.o)
                0x0000a790                Constant_Float32_Init
                0x0000a79c                Constant_Float32_Load
                0x0000a7c0                Constant_Float32_Save
                0x0000a7e8                Constant_Float32_GetAddress

.text%75        0x0000a7f4       0x60
 .text          0x0000a7f4       0x60 ..\src\config\default\X2CCode\X2CModel\Library\General\Controller\lib\libCortexM4-ATSAM_General.a(Selector_FiP16.o)
                0x0000a7f4                Selector_FiP16_Update
                0x0000a808                Selector_FiP16_Init
                0x0000a814                Selector_FiP16_GetAddress

.text%76        0x0000a854       0x5c
 .text          0x0000a854       0x5c ..\src\config\default\X2CCode\X2CModel\Library\General\Controller\lib\libCortexM4-ATSAM_General.a(ManualSwitch_Bool.o)
                0x0000a854                ManualSwitch_Bool_Update
                0x0000a864                ManualSwitch_Bool_Init
                0x0000a870                ManualSwitch_Bool_Load
                0x0000a884                ManualSwitch_Bool_Save
                0x0000a894                ManualSwitch_Bool_GetAddress

.text%77        0x0000a8b0       0x5c
 .text          0x0000a8b0       0x5c ..\src\config\default\X2CCode\X2CModel\Library\General\Controller\lib\libCortexM4-ATSAM_General.a(ManualSwitch_FiP16.o)
                0x0000a8b0                ManualSwitch_FiP16_Update
                0x0000a8c0                ManualSwitch_FiP16_Init
                0x0000a8cc                ManualSwitch_FiP16_Load
                0x0000a8e0                ManualSwitch_FiP16_Save
                0x0000a8f0                ManualSwitch_FiP16_GetAddress

.text.__libc_start_init%78
                0x0000a90c       0x5c
 .text.__libc_start_init
                0x0000a90c       0x5c c:/program files/microchip/xc32/v4.35/bin/bin/../../lib/gcc/pic32c/8.3.1/../../../../pic32c/lib/thumb/v7e-m+fp/hard\libg-musl.a(__libc_start_main.o)
                0x0000a90c                __libc_init_array

.text%79        0x0000a968       0x54
 .text          0x0000a968       0x54 build/default/debug/_ext/2032521757/SerialGeneric.o
                0x0000a980                initSerialGeneric
                0x0000a9b8                linkSerial

.text%80        0x0000a9bc       0x50
 .text          0x0000a9bc       0x50 ..\src\config\default\X2CCode\X2CModel\Library\General\Controller\lib\libCortexM4-ATSAM_General.a(Constant_FiP16.o)
                0x0000a9bc                Constant_FiP16_Init
                0x0000a9c8                Constant_FiP16_Load
                0x0000a9e4                Constant_FiP16_Save
                0x0000aa00                Constant_FiP16_GetAddress

.text%81        0x0000aa0c       0x50
 .text          0x0000aa0c       0x50 ..\src\config\default\X2CCode\X2CModel\Library\Math\Controller\lib\libCortexM4-ATSAM_Math.a(Add_FiP16.o)
                0x0000aa0c                Add_FiP16_Update
                0x0000aa34                Add_FiP16_Init
                0x0000aa40                Add_FiP16_GetAddress

.text%82        0x0000aa5c       0x50
 .text          0x0000aa5c       0x50 ..\src\config\default\X2CCode\X2CModel\Library\Math\Controller\lib\libCortexM4-ATSAM_Math.a(Sub_FiP16.o)
                0x0000aa5c                Sub_FiP16_Update
                0x0000aa84                Sub_FiP16_Init
                0x0000aa90                Sub_FiP16_GetAddress

.text%83        0x0000aaac       0x4c
 .text          0x0000aaac       0x4c build/default/debug/_ext/1455229975/TableStruct.o
                0x0000aaac                initTableStruct
                0x0000aad8                addTableStructProtocol

.text%84        0x0000aaf8       0x4c
 .text          0x0000aaf8       0x4c ..\src\config\default\X2CCode\X2CModel\Library\General\Controller\lib\libCortexM4-ATSAM_General.a(LookupTable_FiP16.o)
                0x0000aaf8                LookupTable_FiP16_Update
                0x0000ab24                LookupTable_FiP16_Init
                0x0000ab30                LookupTable_FiP16_GetAddress

.text.__pic32c_data_initialization%85
                0x0000ab44       0x4c
 .text.__pic32c_data_initialization
                0x0000ab44       0x4c c:/program files/microchip/xc32/v4.35/bin/bin/../../lib/gcc/pic32c/8.3.1/../../../../pic32c/lib/thumb/v7e-m+fp/hard\libpic32c.a(data_init.o)
                0x0000ab44                __pic32c_data_initialization

.text.__aeabi_d2f%86
                0x0000ab90       0x4c
 .text.__aeabi_d2f
                0x0000ab90       0x4c c:/program files/microchip/xc32/v4.35/bin/bin/../../lib/gcc/pic32c/8.3.1/../../../../pic32c/lib/thumb/v7e-m+fp/hard\libm-fast-emfloat.a(__aeabi_d2f.o)
                0x0000ab90                __aeabi_d2f

.text%87        0x0000abdc       0x48
 .text          0x0000abdc       0x48 build/default/debug/_ext/309582698/CRC8CCITT.o
                0x0000abdc                crc8ccitt
                0x0000ac08                crc8ccitt_addValue
                0x0000ac20                crc8ccitt_init

.text%88        0x0000ac24       0x44
 .text          0x0000ac24       0x44 ..\src\config\default\X2CCode\X2CModel\Library\General\Controller\lib\libCortexM4-ATSAM_General.a(Constant_Bool.o)
                0x0000ac24                Constant_Bool_Init
                0x0000ac30                Constant_Bool_Load
                0x0000ac44                Constant_Bool_Save
                0x0000ac5c                Constant_Bool_GetAddress

.text%89        0x0000ac68       0x40
 .text          0x0000ac68       0x40 c:/program files/microchip/xc32/v4.35/bin/bin/../../lib/gcc/pic32c/8.3.1/thumb/v7e-m+fp/hard/crtbegin.o

.text%90        0x0000aca8       0x40
 .text          0x0000aca8       0x40 ..\src\config\default\X2CCode\X2CModel\Library\Math\Controller\lib\libCortexM4-ATSAM_Math.a(Mult_Float32.o)
                0x0000aca8                Mult_Float32_Update
                0x0000acc0                Mult_Float32_Init
                0x0000accc                Mult_Float32_GetAddress

.text%91        0x0000ace8       0x3c
 .text          0x0000ace8       0x3c build/default/debug/_ext/1171490990/initialization.o
                0x0000ace8                SYS_Initialize

.text.__aeabi_dcmple%92
                0x0000ad24       0x3c
 .text.__aeabi_dcmple
                0x0000ad24       0x3c c:/program files/microchip/xc32/v4.35/bin/bin/../../lib/gcc/pic32c/8.3.1/../../../../pic32c/lib/thumb/v7e-m+fp/hard\libm-fast-emfloat.a(__aeabi_dcmple.o)
                0x0000ad24                __aeabi_dcmple

.text.__aeabi_dcmpge%93
                0x0000ad60       0x3c
 .text.__aeabi_dcmpge
                0x0000ad60       0x3c c:/program files/microchip/xc32/v4.35/bin/bin/../../lib/gcc/pic32c/8.3.1/../../../../pic32c/lib/thumb/v7e-m+fp/hard\libm-fast-emfloat.a(__aeabi_dcmpge.o)
                0x0000ad60                __aeabi_dcmpge

.text%94        0x0000ad9c       0x38
 .text          0x0000ad9c       0x38 ..\src\config\default\X2CCode\X2CModel\Library\General\Controller\lib\libCortexM4-ATSAM_General.a(SaveSignal_Float32.o)
                0x0000ad9c                SaveSignal_Float32_Init
                0x0000ada4                SaveSignal_Float32_Load
                0x0000adc8                SaveSignal_Float32_GetAddress

.text%95        0x0000add4       0x38
 .text          0x0000add4       0x38 ..\src\config\default\X2CCode\X2CModel\Library\Math\Controller\lib\libCortexM4-ATSAM_Math.a(Negation_FiP16.o)
                0x0000add4                Negation_FiP16_Update
                0x0000adec                Negation_FiP16_Init
                0x0000adf8                Negation_FiP16_GetAddress

.text%96        0x0000ae0c       0x38
 .text          0x0000ae0c       0x38 ..\src\config\default\X2CCode\X2CModel\Library\Math\Controller\lib\libCortexM4-ATSAM_Math.a(Sign_FiP16.o)
                0x0000ae0c                Sign_FiP16_Update
                0x0000ae24                Sign_FiP16_Init
                0x0000ae30                Sign_FiP16_GetAddress

.text%97        0x0000ae44       0x38
 .text          0x0000ae44       0x38 ..\src\config\default\X2CCode\X2CModel\Library\Math\Controller\lib\libCortexM4-ATSAM_Math.a(uAdd_FiP16.o)
                0x0000ae44                uAdd_FiP16_Update
                0x0000ae54                uAdd_FiP16_Init
                0x0000ae60                uAdd_FiP16_GetAddress

.text.__aeabi_dcmpgt%98
                0x0000ae7c       0x38
 .text.__aeabi_dcmpgt
                0x0000ae7c       0x38 c:/program files/microchip/xc32/v4.35/bin/bin/../../lib/gcc/pic32c/8.3.1/../../../../pic32c/lib/thumb/v7e-m+fp/hard\libm-fast-emfloat.a(__aeabi_dcmpgt.o)
                0x0000ae7c                __aeabi_dcmpgt

.text.__aeabi_dcmplt%99
                0x0000aeb4       0x38
 .text.__aeabi_dcmplt
                0x0000aeb4       0x38 c:/program files/microchip/xc32/v4.35/bin/bin/../../lib/gcc/pic32c/8.3.1/../../../../pic32c/lib/thumb/v7e-m+fp/hard\libm-fast-emfloat.a(__aeabi_dcmplt.o)
                0x0000aeb4                __aeabi_dcmplt

.text%100       0x0000aeec       0x34
 .text          0x0000aeec       0x34 ..\src\config\default\X2CCode\X2CModel\Library\General\Controller\lib\libCortexM4-ATSAM_General.a(TypeConv_Bool_FiP16.o)
                0x0000aeec                TypeConv_Bool_FiP16_Update
                0x0000af00                TypeConv_Bool_FiP16_Init
                0x0000af0c                TypeConv_Bool_FiP16_GetAddress

.text%101       0x0000af20       0x34
 .text          0x0000af20       0x34 ..\src\config\default\X2CCode\X2CModel\Library\General\Controller\lib\libCortexM4-ATSAM_General.a(TypeConv_FiP16_Bool.o)
                0x0000af20                TypeConv_FiP16_Bool_Update
                0x0000af34                TypeConv_FiP16_Bool_Init
                0x0000af40                TypeConv_FiP16_Bool_GetAddress

.text%102       0x0000af54       0x34
 .text          0x0000af54       0x34 ..\src\config\default\X2CCode\X2CModel\Library\Math\Controller\lib\libCortexM4-ATSAM_Math.a(Abs_FiP16.o)
                0x0000af54                Abs_FiP16_Update
                0x0000af68                Abs_FiP16_Init
                0x0000af74                Abs_FiP16_GetAddress

.text.__aeabi_f2d%103
                0x0000af88       0x34
 .text.__aeabi_f2d
                0x0000af88       0x34 c:/program files/microchip/xc32/v4.35/bin/bin/../../lib/gcc/pic32c/8.3.1/../../../../pic32c/lib/thumb/v7e-m+fp/hard\libm-fast-emfloat.a(__aeabi_f2d.o)
                0x0000af88                __aeabi_f2d

.text%104       0x0000afbc       0x30
 .text          0x0000afbc       0x30 c:/program files/microchip/xc32/v4.35/bin/bin/../../lib/gcc/pic32c/8.3.1/thumb/v7e-m+fp/hard\libgcc.a(_aeabi_uldivmod.o)
                0x0000afbc                __aeabi_uldivmod

.text%105       0x0000afec       0x2c
 .text          0x0000afec       0x2c build/default/debug/_ext/60167341/plib_eic.o
                0x0000afec                EIC_Initialize

.text%106       0x0000b018       0x2c
 .text          0x0000b018       0x2c ..\src\config\default\X2CCode\X2CModel\Library\General\Controller\lib\libCortexM4-ATSAM_General.a(Not_Bool.o)
                0x0000b018                Not_Bool_Update
                0x0000b024                Not_Bool_Init
                0x0000b030                Not_Bool_GetAddress

.text%107       0x0000b044       0x24
 .text          0x0000b044       0x24 build/default/debug/_ext/546984198/RamTable.o
                0x0000b044                initRamTables

.text.__dinit_copy%108
                0x0000b068       0x1e
 .text.__dinit_copy
                0x0000b068       0x1e c:/program files/microchip/xc32/v4.35/bin/bin/../../lib/gcc/pic32c/8.3.1/../../../../pic32c/lib/thumb/v7e-m+fp/hard\libpic32c.a(pic32_data_init_copy.o)
                0x0000b068                __dinit_copy_needed
                0x0000b068                __dinit_copy

.text.__aeabi_ui2d%109
                0x0000b086       0x1c
 .text.__aeabi_ui2d
                0x0000b086       0x1c c:/program files/microchip/xc32/v4.35/bin/bin/../../lib/gcc/pic32c/8.3.1/../../../../pic32c/lib/thumb/v7e-m+fp/hard\libm-fast-emfloat.a(__aeabi_ui2d.o)
                0x0000b086                __aeabi_ui2d

.text.memcpy%110
                0x0000b0a4       0x1c
 .text.memcpy   0x0000b0a4       0x1c c:/program files/microchip/xc32/v4.35/bin/bin/../../lib/gcc/pic32c/8.3.1/../../../../pic32c/lib/thumb/v7e-m+fp/hard\libg-musl.a(memcpy.o)
                0x0000b0a4                memcpy

.text%111       0x0000b0c0       0x18
 .text          0x0000b0c0       0x18 build/default/debug/_ext/1171490990/exceptions.o
                0x0000b0c0                NonMaskableInt_Handler
                0x0000b0c4                HardFault_Handler
                0x0000b0c8                DebugMonitor_Handler
                0x0000b0cc                MemoryManagement_Handler
                0x0000b0d0                BusFault_Handler
                0x0000b0d4                UsageFault_Handler

.rodata%112     0x0000b0d8       0x14
 .rodata        0x0000b0d8       0x14 build/default/debug/_ext/546984198/ConfigX2C.o
                0x0000b0d8                compilationDate

.rodata%113     0x0000b0ec       0x14
 .rodata        0x0000b0ec       0x14 c:/program files/microchip/xc32/v4.35/bin/bin/../../lib/gcc/pic32c/8.3.1/../../../../pic32c/lib/thumb/v7e-m+fp/hard\libpic32c.a(data_init.o)

.text.__dinit_clear%114
                0x0000b100       0x12
 .text.__dinit_clear
                0x0000b100       0x12 c:/program files/microchip/xc32/v4.35/bin/bin/../../lib/gcc/pic32c/8.3.1/../../../../pic32c/lib/thumb/v7e-m+fp/hard\libpic32c.a(pic32_data_init_clear.o)
                0x0000b100                __dinit_clear
                0x0000b100                __dinit_clear_needed

.text%115       0x0000b114       0x10
 .text          0x0000b114       0x10 build/default/debug/_ext/163028504/xc32_monitor.o
                0x0000b114                read
                0x0000b11c                write

.text%116       0x0000b124        0x4
 .text          0x0000b124        0x4 build/default/debug/_ext/1434821282/bsp.o
                0x0000b124                BSP_Initialize

.text%117       0x0000b128        0x4
 .text          0x0000b128        0x4 build/default/debug/_ext/1171490990/interrupts.o
                0x0000b128                EIC_EXTINT_9_Handler
                0x0000b128                TCC0_MC5_Handler
                0x0000b128                SVCall_Handler
                0x0000b128                SERCOM0_2_Handler
                0x0000b128                USB_SOF_HSOF_Handler
                0x0000b128                TCC4_OTHER_Handler
                0x0000b128                TCC2_MC2_Handler
                0x0000b128                EVSYS_0_Handler
                0x0000b128                TRNG_Handler
                0x0000b128                TC2_Handler
                0x0000b128                USB_TRCPT0_Handler
                0x0000b128                DAC_OTHER_Handler
                0x0000b128                AC_Handler
                0x0000b128                DAC_EMPTY_0_Handler
                0x0000b128                DMAC_OTHER_Handler
                0x0000b128                EIC_EXTINT_5_Handler
                0x0000b128                SERCOM3_1_Handler
                0x0000b128                SysTick_Handler
                0x0000b128                SERCOM4_OTHER_Handler
                0x0000b128                SERCOM3_2_Handler
                0x0000b128                EIC_EXTINT_6_Handler
                0x0000b128                PendSV_Handler
                0x0000b128                TC7_Handler
                0x0000b128                TCC4_MC0_Handler
                0x0000b128                EVSYS_3_Handler
                0x0000b128                QSPI_Handler
                0x0000b128                TCC2_MC0_Handler
                0x0000b128                PDEC_OTHER_Handler
                0x0000b128                TCC3_MC0_Handler
                0x0000b128                PDEC_MC1_Handler
                0x0000b128                TCC2_MC1_Handler
                0x0000b128                OSCCTRL_XOSC1_Handler
                0x0000b128                PDEC_MC0_Handler
                0x0000b128                EIC_EXTINT_4_Handler
                0x0000b128                EIC_EXTINT_7_Handler
                0x0000b128                SERCOM0_OTHER_Handler
                0x0000b128                EVSYS_OTHER_Handler
                0x0000b128                SERCOM0_0_Handler
                0x0000b128                RTC_Handler
                0x0000b128                ADC1_Handler
                0x0000b128                SERCOM4_0_Handler
                0x0000b128                TCC1_MC0_Handler
                0x0000b128                SERCOM1_OTHER_Handler
                0x0000b128                TCC2_OTHER_Handler
                0x0000b128                EIC_EXTINT_11_Handler
                0x0000b128                SUPC_BODDET_Handler
                0x0000b128                EIC_EXTINT_14_Handler
                0x0000b128                OSC32KCTRL_Handler
                0x0000b128                SERCOM6_2_Handler
                0x0000b128                EVSYS_1_Handler
                0x0000b128                TC6_Handler
                0x0000b128                TCC4_MC1_Handler
                0x0000b128                DMAC_0_Handler
                0x0000b128                SUPC_OTHER_Handler
                0x0000b128                WDT_Handler
                0x0000b128                CAN0_Handler
                0x0000b128                EIC_EXTINT_15_Handler
                0x0000b128                SERCOM6_0_Handler
                0x0000b128                EIC_EXTINT_1_Handler
                0x0000b128                TCC3_MC1_Handler
                0x0000b128                SERCOM5_0_Handler
                0x0000b128                TC4_Handler
                0x0000b128                TC1_Handler
                0x0000b128                TCC1_MC1_Handler
                0x0000b128                EIC_EXTINT_0_Handler
                0x0000b128                TCC1_OTHER_Handler
                0x0000b128                PAC_Handler
                0x0000b128                SERCOM4_1_Handler
                0x0000b128                TC3_Handler
                0x0000b128                Dummy_Handler
                0x0000b128                DAC_RESRDY_0_Handler
                0x0000b128                SERCOM5_1_Handler
                0x0000b128                DMAC_2_Handler
                0x0000b128                TCC0_MC4_Handler
                0x0000b128                USB_TRCPT1_Handler
                0x0000b128                SERCOM0_1_Handler
                0x0000b128                TCC0_MC3_Handler
                0x0000b128                EIC_EXTINT_12_Handler
                0x0000b128                OSCCTRL_DPLL0_Handler
                0x0000b128                SERCOM6_OTHER_Handler
                0x0000b128                SERCOM7_1_Handler
                0x0000b128                SERCOM5_OTHER_Handler
                0x0000b128                PM_Handler
                0x0000b128                OSCCTRL_DFLL_Handler
                0x0000b128                SERCOM7_0_Handler
                0x0000b128                DAC_RESRDY_1_Handler
                0x0000b128                DMAC_1_Handler
                0x0000b128                USB_OTHER_Handler
                0x0000b128                GMAC_Handler
                0x0000b128                SDHC1_Handler
                0x0000b128                SERCOM7_2_Handler
                0x0000b128                CAN1_Handler
                0x0000b128                EIC_EXTINT_10_Handler
                0x0000b128                TCC1_MC3_Handler
                0x0000b128                OSCCTRL_XOSC0_Handler
                0x0000b128                SERCOM6_1_Handler
                0x0000b128                TCC0_MC0_Handler
                0x0000b128                EIC_EXTINT_2_Handler
                0x0000b128                SDHC0_Handler
                0x0000b128                SERCOM1_1_Handler
                0x0000b128                I2S_Handler
                0x0000b128                PCC_Handler
                0x0000b128                TCC3_OTHER_Handler
                0x0000b128                EIC_EXTINT_13_Handler
                0x0000b128                SERCOM1_0_Handler
                0x0000b128                PUKCC_Handler
                0x0000b128                SERCOM2_1_Handler
                0x0000b128                SERCOM1_2_Handler
                0x0000b128                SERCOM3_0_Handler
                0x0000b128                SERCOM4_2_Handler
                0x0000b128                TCC1_MC2_Handler
                0x0000b128                NVMCTRL_1_Handler
                0x0000b128                SERCOM5_2_Handler
                0x0000b128                SERCOM2_2_Handler
                0x0000b128                DAC_EMPTY_1_Handler
                0x0000b128                ADC1_OTHER_Handler
                0x0000b128                OSCCTRL_DPLL1_Handler
                0x0000b128                EIC_EXTINT_3_Handler
                0x0000b128                SERCOM3_OTHER_Handler
                0x0000b128                EIC_EXTINT_8_Handler
                0x0000b128                NVMCTRL_0_Handler
                0x0000b128                ADC0_OTHER_Handler
                0x0000b128                MCLK_Handler
                0x0000b128                SERCOM7_OTHER_Handler
                0x0000b128                EVSYS_2_Handler
                0x0000b128                SERCOM2_OTHER_Handler
                0x0000b128                FREQM_Handler
                0x0000b128                TC0_Handler
                0x0000b128                TCC0_MC1_Handler
                0x0000b128                DMAC_3_Handler
                0x0000b128                RAMECC_Handler
                0x0000b128                TC5_Handler
                0x0000b128                SERCOM2_0_Handler
                0x0000b128                AES_Handler
                0x0000b128                ICM_Handler
                0x0000b128                TCC0_MC2_Handler

.text%118       0x0000b12c        0x4
 .text          0x0000b12c        0x4 build/default/debug/_ext/1171490990/libc_syscalls.o
                0x0000b12c                _exit

.text.__dummy_decompress%119
                0x0000b130        0x4
 .text.__dummy_decompress
                0x0000b130        0x4 c:/program files/microchip/xc32/v4.35/bin/bin/../../lib/gcc/pic32c/8.3.1/../../../../pic32c/lib/thumb/v7e-m+fp/hard\libpic32c.a(data_init.o)
                0x0000b130                __dinit_decompress
                0x0000b130                __dinit_copy_val_data
                0x0000b130                __dinit_copy_emb

.text%120       0x0000b134        0x4
 .text          0x0000b134        0x4 c:/program files/microchip/xc32/v4.35/bin/bin/../../lib/gcc/pic32c/8.3.1/thumb/v7e-m+fp/hard\libgcc.a(_dvmd_tls.o)
                0x0000b134                __aeabi_idiv0
                0x0000b134                __aeabi_ldiv0

.text%121       0x0000a71e        0x2
 .text          0x0000a71e        0x2 build/default/debug/_ext/1171490990/startup_xc32.o
                0x0000a71e                _on_reset
                0x0000a71e                _on_bootstrap
                0x0000a71e                __xc32_on_reset
                0x0000a71e                Dummy_App_Func
                0x0000a71e                __xc32_on_bootstrap

.text.__dummy%122
                0x0000b0a2        0x2
 .text.__dummy  0x0000b0a2        0x2 c:/program files/microchip/xc32/v4.35/bin/bin/../../lib/gcc/pic32c/8.3.1/../../../../pic32c/lib/thumb/v7e-m+fp/hard\libg-musl.a(__libc_start_main.o)
                0x0000b0a2                __init_stdio
                0x0000b0a2                __init_host

.text%z158      0x00000000        0x0
 .text          0x00000000        0x0 c:/program files/microchip/xc32/v4.35/bin/bin/../../lib/gcc/pic32c/8.3.1/../../../../pic32c/lib/thumb/v7e-m+fp/hard\libpic32c.a(pic32_data_init_copy.o)

.text%z159      0x00000000        0x0
 .text          0x00000000        0x0 c:/program files/microchip/xc32/v4.35/bin/bin/../../lib/gcc/pic32c/8.3.1/../../../../pic32c/lib/thumb/v7e-m+fp/hard\libpic32c.a(pic32_data_init_clear.o)

.text%z160      0x00000000        0x0
 .text          0x00000000        0x0 c:/program files/microchip/xc32/v4.35/bin/bin/../../lib/gcc/pic32c/8.3.1/thumb/v7e-m+fp/hard/crtn.o

.text%z161      0x00000000        0x0
 .text          0x00000000        0x0 c:/program files/microchip/xc32/v4.35/bin/bin/../../lib/gcc/pic32c/8.3.1/thumb/v7e-m+fp/hard/crtend.o

.text%z162      0x00000000        0x0
 .text          0x00000000        0x0 c:/program files/microchip/xc32/v4.35/bin/bin/../../lib/gcc/pic32c/8.3.1/../../../../pic32c/lib/thumb/v7e-m+fp/hard\libg-musl.a(__environ.o)

.text%z163      0x00000000        0x0
 .text          0x00000000        0x0 c:/program files/microchip/xc32/v4.35/bin/bin/../../lib/gcc/pic32c/8.3.1/../../../../pic32c/lib/thumb/v7e-m+fp/hard\libg-musl.a(memcpy.o)

.text%z164      0x00000000        0x0
 .text          0x00000000        0x0 c:/program files/microchip/xc32/v4.35/bin/bin/../../lib/gcc/pic32c/8.3.1/../../../../pic32c/lib/thumb/v7e-m+fp/hard\libg-musl.a(libc.o)

.text%z165      0x00000000        0x0
 .text          0x00000000        0x0 c:/program files/microchip/xc32/v4.35/bin/bin/../../lib/gcc/pic32c/8.3.1/../../../../pic32c/lib/thumb/v7e-m+fp/hard\libg-musl.a(__libc_start_main.o)

.text%z166      0x00000000        0x0
 .text          0x00000000        0x0 c:/program files/microchip/xc32/v4.35/bin/bin/../../lib/gcc/pic32c/8.3.1/../../../../pic32c/lib/thumb/v7e-m+fp/hard\libpic32c.a(data_init.o)

.text%z167      0x00000000        0x0
 .text          0x00000000        0x0 build/default/debug/_ext/546984198/FlashTable.o

.text%z168      0x00000000        0x0
 .text          0x00000000        0x0 build/default/debug/_ext/1455229975/Sqrt_Data.o

.text%z169      0x00000000        0x0
 .text          0x00000000        0x0 build/default/debug/_ext/1455229975/Sin_Data.o

.text%z170      0x00000000        0x0
 .text          0x00000000        0x0 build/default/debug/_ext/1455229975/Sin2_Data.o

.text%z171      0x00000000        0x0
 .text          0x00000000        0x0 build/default/debug/_ext/1455229975/Exp_Data.o

.text%z172      0x00000000        0x0
 .text          0x00000000        0x0 build/default/debug/_ext/1455229975/Atan_Data.o

.text%z173      0x00000000        0x0
 .text          0x00000000        0x0 c:/program files/microchip/xc32/v4.35/bin/bin/../../lib/gcc/pic32c/8.3.1/thumb/v7e-m+fp/hard/crti.o
